
Discarded input sections

 .gomi          0x0000000000000000       0x10 output.o

Memory Configuration

Name             Origin             Length             Attributes
*default*        0x0000000000000000 0xffffffffffffffff

Linker script and memory map

                0x0000000040100000                virt = 0x40100000
                0x0000000000100000                phys = 0x100000
                0x0000000040100000                . = virt
                0x0000000040100000                head = .
                0x0000000040100078                . = (virt + SIZEOF_HEADERS)

.entry          0x0000000040101000     0x6880 load address 0x0000000000101000
                0x0000000040101000                code = .
 *(.entry)
 .entry         0x0000000040101000     0x6000 output.o
                0x000000004010100c                entry
                0x0000000040101330                uefi_entry_virttophys
                0x000000004010133b                uefi_entry_call
                0x000000004010137b                uefi_entry_pcpy
                0x00000000401013ba                uefi_entry_start
                0x00000000401014d1                uefi_entry_rsp
                0x00000000401014d9                uefi_entry_ret_addr
                0x0000000040101580                cpuinit_start
                0x00000000401017b0                vmm_base_cr3
                0x00000000401017c8                apinit_procs
                0x00000000401017d0                apinit_lock
                0x00000000401017d8                cpuinit_end
                0x0000000040103000                entry_pdp
                0x0000000040104000                entry_pd0
                0x0000000040105000                entry_pd
 *(.entry.text)
 .entry.text    0x0000000040107000      0x6e2 output.o
                0x0000000040107000                uefi_init_get_vmmsize
                0x00000000401070a6                uefi_init
 *(.entry.data)
 *fill*         0x00000000401076e2       0x1e 
 .entry.data    0x0000000040107700      0x180 output.o
                0x00000000401077c8                uefi_boot_param_ext_addr
                0x00000000401077d0                uefi_disconnect_controller
                0x00000000401077d8                uefi_image_handle
                0x00000000401077e0                uefi_close_protocol
                0x00000000401077e8                uefi_open_protocol
                0x00000000401077f0                uefi_free_pool
                0x00000000401077f8                uefi_locate_handle_buffer
                0x0000000040107800                uefi_acpi_table
                0x0000000040107808                uefi_acpi_20_table
                0x0000000040107810                uefi_wait_for_event
                0x0000000040107818                uefi_free_pages
                0x0000000040107820                uefi_get_memory_map
                0x0000000040107828                uefi_allocate_pages
                0x0000000040107830                uefi_conout_output_string
                0x0000000040107838                uefi_conin_read_key_stroke
                0x0000000040107840                uefi_conout
                0x0000000040107848                uefi_conin

.text           0x0000000040108000   0x1241e9 load address 0x0000000000108000
                0x0000000040108000                text = .
 *(.text)
 .text          0x0000000040108000   0x1241e9 output.o
                0x0000000040108b69                acpi_smi_hook
                0x0000000040108bb7                acpi_iohook
                0x0000000040108c10                acpi_reset
                0x0000000040108d6f                acpi_poweroff
                0x0000000040108da2                get_acpi_time_raw
                0x0000000040108dbe                acpi_read_mcfg
                0x000000004010ee63                acpi_dsdt_parse
                0x000000004010ef28                acpi_ssdt_parse
                0x000000004010f071                apinitproc0
                0x000000004010f09d                apic_available
                0x000000004010f0c2                ap_start_addr
                0x000000004010f424                panic_wakeup_all
                0x000000004010f4b1                disable_apic
                0x000000004010f56b                sync_all_processors
                0x000000004010f5fe                start_all_processors
                0x000000004010f640                assertion_failed
                0x000000004010f677                beep_set_freq
                0x000000004010f6a3                beep_on
                0x000000004010f6ae                beep_off
                0x000000004010fd0a                update_mtrr_and_pat
                0x0000000040110104                cache_get_gpat
                0x0000000040110157                cache_set_gpat
                0x00000000401101a1                cache_get_attr
                0x0000000040110239                cache_get_gmtrr_type
                0x0000000040110253                cache_gmtrr_type_equal
                0x0000000040110376                cache_get_gmtrr_attr
                0x0000000040110399                cache_get_gmtrrcap
                0x00000000401103c2                cache_get_gmtrr
                0x00000000401104d6                cache_set_gmtrr
                0x0000000040110536                cache_get_gmsr_amd
                0x00000000401105c6                cache_set_gmsr_amd
                0x0000000040110a31                callrealmode_endofcodeaddr
                0x0000000040110a3d                callrealmode_usevcpu
                0x0000000040110a45                callrealmode_printmsg
                0x0000000040110a61                callrealmode_getsysmemmap
                0x0000000040110aad                callrealmode_getshiftflags
                0x0000000040110aca                callrealmode_setvideomode
                0x0000000040110ae7                callrealmode_reboot
                0x0000000040110aff                callrealmode_tcgbios
                0x0000000040110b9c                callrealmode_disk_readmbr
                0x0000000040110bdd                callrealmode_disk_readlba
                0x0000000040110c28                callrealmode_bootcd_getstatus
                0x0000000040110c7d                callrealmode_setcursorpos
                0x0000000040110ca3                callrealmode_startkernel32
                0x0000000040110cc3                callrealmode_getfontinfo
                0x0000000040110d30                call_uefi_get_memory_map
                0x0000000040110dab                call_uefi_allocate_pages
                0x0000000040110e0a                call_uefi_free_pages
                0x0000000040110e2f                call_uefi_getkey
                0x0000000040110ea4                call_uefi_putchar
                0x0000000040110eef                call_uefi_disconnect_pcidev_driver
                0x00000000401111d0                fill_pagetable
                0x00000000401112d9                copy_uefi_bootcode
                0x0000000040111442                get_cpu_id
                0x0000000040111451                cpu_emul_cpuid
                0x000000004011150d                cpu_emul_rdmsr
                0x000000004011157e                cpu_emul_wrmsr
                0x00000000401115f1                cpu_emul_hlt
                0x0000000040111604                cpu_emul_cli
                0x000000004011163f                cpu_emul_sti
                0x0000000040111688                cpu_emul_realmode_int
                0x00000000401117fd                cpu_emul_xsetbv
                0x0000000040114236                cpu_interpreter
                0x000000004011648f                cpu_mmu_get_pte
                0x0000000040116bc9                write_linearaddr_ok_b
                0x0000000040116beb                write_linearaddr_ok_w
                0x0000000040116bf9                write_linearaddr_ok_l
                0x0000000040116c07                write_linearaddr_b
                0x0000000040116c70                write_linearaddr_w
                0x0000000040116d0b                write_linearaddr_l
                0x0000000040116da4                write_linearaddr_q
                0x0000000040116e3b                read_linearaddr_b
                0x0000000040116ea2                read_linearaddr_w
                0x0000000040116f37                read_linearaddr_l
                0x0000000040116fcc                read_linearaddr_q
                0x0000000040117061                read_linearaddr_tss
                0x00000000401170f4                write_linearaddr_tss
                0x000000004011b02b                cpu_mmu_spt_tlbflush
                0x000000004011b069                cpu_mmu_spt_updatecr3
                0x000000004011b2e5                cpu_mmu_spt_invalidate
                0x000000004011b359                cpu_mmu_spt_pagefault
                0x000000004011b540                cpu_mmu_spt_extern_mapsearch
                0x000000004011b66d                cpu_mmu_spt_map_1mb
                0x000000004011b804                cpu_mmu_spt_clear_all
                0x000000004011b944                cpu_mmu_spt_init
                0x000000004011bece                cpu_seg_read_b
                0x000000004011bf38                cpu_seg_read_w
                0x000000004011bfa2                cpu_seg_read_l
                0x000000004011c00c                cpu_seg_read_q
                0x000000004011c076                cpu_seg_write_b
                0x000000004011c0e1                cpu_seg_write_w
                0x000000004011c14c                cpu_seg_write_l
                0x000000004011c1b6                cpu_seg_write_q
                0x000000004011c220                cpu_stack_get
                0x000000004011c28b                cpu_stack_set
                0x000000004011c322                cpu_stack_push
                0x000000004011c3c0                cpu_stack_pop
                0x000000004011c490                call_cpuid
                0x000000004011c852                debug_gdb
                0x000000004011c853                debug_iohook
                0x000000004011c854                debug_msgregister
                0x000000004011c887                debug_msgunregister
                0x000000004011c92a                exint_pass_intr_alloc
                0x000000004011c972                exint_pass_intr_free
                0x000000004011c990                exint_pass_intr_register_callback
                0x000000004011c9e6                do_exint_pass
                0x000000004011cae4                read_gphys_b
                0x000000004011cb47                write_gphys_b
                0x000000004011cbc6                read_gphys_w
                0x000000004011cc53                write_gphys_w
                0x000000004011cd00                read_gphys_l
                0x000000004011cd8d                write_gphys_l
                0x000000004011ce3f                read_gphys_q
                0x000000004011cecc                write_gphys_q
                0x000000004011cf79                cmpxchg_gphys_l
                0x000000004011d032                cmpxchg_gphys_q
                0x000000004011d0eb                gmm_pass_getforcemap
                0x000000004011d0ff                gmm_pass_gp2hp
                0x000000004011d132                gmm_pass_gp2hp_2m
                0x000000004011d5d3                idman_reinit_session
                0x000000004011d657                idman_reinit2
                0x000000004011d67b                get_idman_session
                0x000000004011d6aa                call_initfunc
                0x000000004011d6f6                initfunc_init
                0x000000004011f256                int_fatal
                0x000000004011f50e                callfunc_and_getint
                0x000000004011f525                do_externalint_enable
                0x000000004011f53d                set_int_handler
                0x000000004011f557                int_exceptionHandler
                0x000000004011f55d                int_init_ap
                0x000000004011f589                do_io_nothing
                0x000000004011f5c9                set_iofunc
                0x000000004011f63a                call_io
                0x000000004011f720                do_iopass_default
                0x000000004011f999                keyboard_reset
                0x000000004011f9e4                setkbdled
                0x000000004011fa35                keyboard_flush
                0x000000004011fa53                load_bootsector
                0x000000004011fde3                copy_bootsector
                0x00000000401201e0                localapic_wait_for_sipi
                0x00000000401202b3                localapic_change_base_msr
                0x000000004012032d                localapic_mmio_register
                0x0000000040120398                localapic_delayed_ap_start
                0x00000000401203a0                localapic_x2apic_icr
                0x0000000040120eec                resume_vm
                0x0000000040120f9e                vmm_main
                0x000000004012147a                getsysmemmap
                0x00000000401214f2                getfakesysmemmap
                0x0000000040121563                phys_to_virt
                0x0000000040121574                vmm_start_inf
                0x000000004012157b                vmm_term_inf
                0x0000000040121587                num_of_available_pages
                0x0000000040121600                mm_get_panicmem
                0x000000004012162a                mm_free_panicmem
                0x0000000040121675                alloc_pages
                0x00000000401216d9                alloc_page
                0x00000000401216ec                alloc
                0x0000000040121958                alloc2
                0x0000000040121993                free
                0x0000000040121aa2                realloc
                0x0000000040121bd5                free_page
                0x0000000040121beb                free_page_phys
                0x0000000040121c11                mempool_new
                0x0000000040121c71                mempool_free
                0x0000000040121d29                mempool_allocmem
                0x0000000040121f1c                mempool_freemem
                0x0000000040122190                sym_to_phys
                0x000000004012219f                phys_in_vmm
                0x00000000401221c1                mm_force_unlock
                0x00000000401221e5                mm_process_alloc
                0x0000000040122227                mm_process_free
                0x0000000040122235                pmap_open_vmm
                0x000000004012225b                pmap_open_guest
                0x0000000040122299                pmap_close
                0x000000004012229a                pmap_getreadlevel
                0x00000000401222a1                pmap_setlevel
                0x00000000401222a8                pmap_seek
                0x00000000401222eb                pmap_read
                0x000000004012258b                pmap_write
                0x0000000040122759                mm_process_unmap
                0x000000004012282f                mm_process_unmap_stack
                0x00000000401229e9                mm_process_unmapall
                0x0000000040122a89                mm_process_switch
                0x0000000040122c4b                pmap_pointer
                0x0000000040122cac                pmap_clear
                0x0000000040122de4                pmap_autoalloc
                0x0000000040122f52                mm_process_map_alloc
                0x0000000040123035                mm_process_map_shared_physpage
                0x0000000040123090                mm_process_map_shared
                0x00000000401232ed                mm_process_map_stack
                0x0000000040123cab                pmap_dump
                0x0000000040123db6                unmapmem
                0x0000000040123e7e                mapmem
                0x00000000401242aa                read_hphys_b
                0x0000000040124301                write_hphys_b
                0x0000000040124326                read_hphys_w
                0x0000000040124350                write_hphys_w
                0x0000000040124376                read_hphys_l
                0x000000004012439e                write_hphys_l
                0x00000000401243c3                read_hphys_q
                0x00000000401243ed                write_hphys_q
                0x0000000040124414                cmpxchg_hphys_l
                0x0000000040124454                cmpxchg_hphys_q
                0x0000000040124498                alloc_realmodemem
                0x0000000040124699                mapmem_hphys
                0x00000000401246b4                mapmem_gphys
                0x00000000401246cf                mm_flush_wb_cache
                0x0000000040124d42                mmio_access_memory
                0x000000004012501a                mmio_access_page
                0x00000000401250e3                mmio_register
                0x00000000401250f7                mmio_register_unlocked
                0x000000004012510b                mmio_unregister
                0x00000000401251bb                mmio_lock
                0x00000000401251f3                mmio_unlock
                0x00000000401252f3                mmio_range
                0x000000004012545f                msg_findname
                0x00000000401254c1                msg_register
                0x0000000040125592                msg_unregister
                0x0000000040125612                msg_unregisterall
                0x000000004012568e                msg_unregister2
                0x0000000040125748                call_read_msr
                0x000000004012575f                call_write_msr
                0x0000000040125d4c                msr_pass_hook_x2apic_icr
                0x0000000040125e5b                load_minios
                0x00000000401260f0                backtrace
                0x0000000040126af5                panic
                0x00000000401270a7                auto_reboot
                0x00000000401270c4                panic_test
                0x00000000401270e6                pcpu_list_foreach
                0x0000000040127116                pcpu_list_add
                0x0000000040127165                pcpu_init
                0x0000000040127cce                vprintf
                0x0000000040127d0c                printf
                0x0000000040127d54                vsnprintf
                0x0000000040127d92                snprintf
                0x0000000040127ed7                sys_msgret
                0x0000000040127eec                sys_msgunregister
                0x0000000040127fcf                sys_msgsetfunc
                0x0000000040128077                sys_msgclose
                0x000000004012821c                sys_msgregister
                0x0000000040128511                sys_msgsenddesc
                0x00000000401287ff                sys_newprocess
                0x0000000040128869                sys_exitprocess
                0x00000000401288b9                sys_msgopen
                0x000000004012891a                process_kill
                0x000000004012897e                own_process64_msrs
                0x00000000401290ee                sys_msgsendint
                0x0000000040129199                sys_msgsendbuf
                0x00000000401292c0                msgsetfunc
                0x00000000401292d0                msgregister
                0x00000000401292e9                msgopen
                0x00000000401292ff                msgclose
                0x000000004012930c                msgsendint
                0x0000000040129323                msgsenddesc
                0x000000004012933a                newprocess
                0x0000000040129350                msgsendbuf
                0x000000004012936d                msgunregister
                0x00000000401293a0                exitprocess
                0x00000000401293b3                msgpremapbuf
                0x00000000401294cc                process_syscall
                0x0000000040129582                putchar
                0x00000000401295c3                putchar_set_func
                0x00000000401298ec                do_panic_reboot
                0x0000000040129969                handle_init_to_bsp
                0x00000000401299d7                reboot_test
                0x0000000040129a00                savemsr_save
                0x0000000040129a6a                savemsr_load
                0x0000000040129dd8                get_seg_base
                0x0000000040129e8a                get_seg_access_rights
                0x0000000040129ea5                segment_wakeup
                0x0000000040129ee9                segment_init_ap
                0x000000004012a0f9                serial_putDebugChar
                0x000000004012a106                serial_getDebugChar
                0x000000004012a116                serial_putchar
                0x000000004012a176                serial_init_iohook
                0x000000004012a1ad                waitcycles
                0x000000004012a1c2                usleep
                0x000000004012a2bf                sleep_set_timer_counter
                0x000000004012a2e8                strtol
                0x000000004012a54d                vmctl_svm_init
                0x000000004012a59d                message_exitcode
                0x000000004012a915                printexitcode
                0x000000004012a935                svm_available
                0x000000004012a9d6                svm_reset
                0x000000004012ac81                svm_vminit
                0x000000004012af5f                svm_vmexit
                0x000000004012af60                svm_init
                0x000000004012b076                svm_enable_resume
                0x000000004012b127                svm_resume
                0x000000004012b237                svm_ioio
                0x000000004012b320                svm_iopass
                0x000000004012b487                svm_init_signal
                0x000000004012b4af                svm_start_vm
                0x000000004012c11f                svm_msr_update_lma
                0x000000004012c18e                svm_read_msr
                0x000000004012c3e6                svm_write_msr
                0x000000004012c64f                svm_msrpass
                0x000000004012cd1c                svm_np_init
                0x000000004012cdd8                svm_np_pagefault
                0x000000004012ce5f                svm_np_tlbflush
                0x000000004012ce60                svm_np_updatecr3
                0x000000004012ce6e                svm_np_clear_all
                0x000000004012ced6                svm_np_extern_mapsearch
                0x000000004012cf8e                svm_np_map_1mb
                0x000000004012cff3                svm_paging_extern_flush_tlb_entry
                0x000000004012d01a                svm_paging_map_1mb
                0x000000004012d041                svm_paging_flush_guest_tlb
                0x000000004012d07a                svm_paging_init
                0x000000004012d18b                svm_paging_pagefault
                0x000000004012d1ba                svm_paging_tlbflush
                0x000000004012d1e1                svm_paging_invalidate
                0x000000004012d210                svm_paging_npf
                0x000000004012d23f                svm_paging_updatecr3
                0x000000004012d266                svm_paging_spt_setcr3
                0x000000004012d29a                svm_paging_clear_all
                0x000000004012d2c1                svm_paging_get_gpat
                0x000000004012d2cf                svm_paging_set_gpat
                0x000000004012d30f                svm_paging_apply_fixed_cr0
                0x000000004012d32f                svm_paging_apply_fixed_cr4
                0x000000004012d34b                svm_paging_pg_change
                0x000000004012d34c                svm_paging_start
                0x000000004012d34f                svm_panic_dump
                0x000000004012d41b                svm_read_general_reg
                0x000000004012d557                svm_write_general_reg
                0x000000004012d663                svm_read_control_reg
                0x000000004012d6e7                svm_write_control_reg
                0x000000004012d7b3                svm_read_sreg_sel
                0x000000004012d874                svm_read_sreg_acr
                0x000000004012d94a                svm_read_sreg_base
                0x000000004012da5c                svm_read_sreg_limit
                0x000000004012db63                svm_read_ip
                0x000000004012db7d                svm_write_ip
                0x000000004012db9e                svm_read_flags
                0x000000004012dbb8                svm_write_flags
                0x000000004012dbcf                svm_read_gdtr
                0x000000004012dc01                svm_write_gdtr
                0x000000004012dc25                svm_read_idtr
                0x000000004012dc57                svm_write_idtr
                0x000000004012dc7b                svm_write_realmode_seg
                0x000000004012ddba                svm_writing_sreg
                0x000000004012deaa                int1a_TCG_StatusCheck
                0x000000004012df7c                int1a_TCG_HashLogExtendEvent
                0x000000004012e008                int1a_TCG_PassThroughToTPM
                0x000000004012e094                int1a_TCG_HashLogEvent
                0x000000004012e11b                int1a_TCG_HashAll
                0x000000004012e1dc                int1a_TCG_TSS
                0x000000004012e268                int1a_TCG_CompactHashLogExtendEvent
                0x000000004012e2cb                tcg_measure
                0x000000004012e5c2                thread_gettid
                0x000000004012e5d2                schedule
                0x000000004012e818                thread_new
                0x000000004012e97a                thread_wakeup
                0x000000004012ea5d                thread_will_stop
                0x000000004012ead2                thread_exit
                0x000000004012eb70                thread_start1
                0x000000004012ed6d                get_cpu_time
                0x000000004012ee23                get_acpi_time
                0x000000004012eec2                get_time
                0x000000004012f099                timer_new
                0x000000004012f114                timer_set
                0x000000004012f230                timer_free
                0x000000004012f6c2                tty_putchar
                0x000000004012fa6f                ttylog_stop
                0x000000004012fa7a                tty_udp_register
                0x000000004012fabf                tty_get_logbuf_info
                0x000000004012fafc                ttylog_copy_to_panicmem
                0x000000004012fb0f                ttylog_copy_from_panicmem
                0x000000004012fb22                tty_init_iohook
                0x000000004012fb3a                vcpu_list_foreach
                0x000000004012fb6a                load_new_vcpu
                0x000000004012fc12                vga_register
                0x000000004012fc87                vga_is_ready
                0x000000004012fcda                vga_transfer_image
                0x000000004012fd20                vga_fill_rect
                0x000000004012fd58                vga_get_screen_size
                0x000000004012fe6b                vmmcall
                0x000000004012fec3                vmmcall_register
                0x000000004012ff00                vmmcall_init
                0x00000000401303a0                vmmcall_boot_continue
                0x00000000401303f0                vmmcall_boot_enable
                0x0000000040130981                register_status_callback
                0x0000000040130a3e                vramwrite_clearscreen
                0x0000000040130aa2                vramwrite_putchar
                0x0000000040130c71                vramwrite_mark1
                0x0000000040130ca7                vramwrite_mark2
                0x0000000040130ce4                vramwrite_mark3
                0x0000000040130d21                vramwrite_save_and_move_cursor
                0x0000000040130d4e                vramwrite_restore_cursor
                0x0000000040130d5b                vramwrite_get_cursor_pos
                0x0000000040130da3                vramwrite_init_global
                0x0000000040130dab                vramwrite_exit_global
                0x0000000040130e36                vt_generate_pagefault
                0x0000000040130eb7                vt_generate_external_int
                0x0000000040130f04                vmctl_vt_init
                0x0000000040130f54                vt_update_exint
                0x0000000040130fd5                vt_vmptrld
                0x0000000040131524                vt_ept_init
                0x00000000401315de                vt_ept_violation
                0x0000000040131665                vt_ept_tlbflush
                0x0000000040131666                vt_ept_updatecr3
                0x000000004013171f                vt_ept_clear_all
                0x0000000040131787                vt_ept_extern_mapsearch
                0x000000004013183f                vt_ept_map_1mb
                0x00000000401318a4                message_exitreason
                0x0000000040131a16                printexitreason
                0x000000004013266b                vt_available
                0x0000000040132703                vt__vmx_init
                0x000000004013274b                vt__vmxon
                0x00000000401327fc                vt_vminit
                0x000000004013285b                vt_vmexit
                0x0000000040132878                vt_init
                0x000000004013288b                vt_enable_resume
                0x0000000040132972                vt_resume
                0x0000000040132a61                vt_io
                0x0000000040132b8d                vt_iopass
                0x00000000401339e2                vt_update_exception_bmp
                0x0000000040133fc7                vt_init_signal
                0x0000000040133fd5                vt_start_vm
                0x000000004013454c                vt_msr_load_process64_msrs
                0x00000000401345fa                vt_msr_own_process_msrs
                0x0000000040134628                vt_add_guest_msr
                0x0000000040134774                vt_read_guest_msr
                0x00000000401347d4                vt_write_guest_msr
                0x000000004013482e                vt_msr_update_lma
                0x00000000401348d7                vt_read_msr
                0x0000000040134ae2                vt_write_msr
                0x0000000040134cf5                vt_msrpass
                0x0000000040134e42                vt_msr_init
                0x0000000040134f8d                vt_paging_extern_flush_tlb_entry
                0x0000000040134fe0                vt_paging_map_1mb
                0x0000000040134ffe                vt_paging_flush_guest_tlb
                0x000000004013505f                vt_paging_pagefault
                0x0000000040135095                vt_paging_tlbflush
                0x00000000401350b3                vt_paging_invalidate
                0x00000000401350d9                vt_paging_npf
                0x000000004013510d                vt_paging_updatecr3
                0x0000000040135130                vt_paging_spt_setcr3
                0x0000000040135156                vt_paging_clear_all
                0x000000004013518e                vt_paging_get_gpat
                0x000000004013519c                vt_paging_set_gpat
                0x00000000401351e2                vt_paging_apply_fixed_cr0
                0x0000000040135246                vt_paging_apply_fixed_cr4
                0x000000004013528f                vt_paging_pg_change
                0x00000000401354c4                vt_paging_init
                0x0000000040135513                vt_paging_start
                0x0000000040135531                vt_panic_dump
                0x000000004013571d                vt_read_general_reg
                0x0000000040135841                vt_write_general_reg
                0x0000000040135935                vt_read_control_reg
                0x00000000401359d1                vt_read_sreg_sel
                0x0000000040135ada                vt_read_sreg_acr
                0x0000000040135b43                vt_read_sreg_base
                0x0000000040135bd7                vt_read_sreg_limit
                0x0000000040135c66                vt_read_ip
                0x0000000040135c72                vt_write_ip
                0x0000000040135c8d                vt_read_flags
                0x0000000040135cb1                vt_write_flags
                0x0000000040135cd2                vt_read_gdtr
                0x0000000040135ce9                vt_write_gdtr
                0x0000000040135cfa                vt_read_idtr
                0x0000000040135d3f                vt_write_idtr
                0x0000000040135d70                vt_write_control_reg
                0x00000000401362fb                vt_get_current_regs_in_vmcs
                0x000000004013659c                vt_get_vmcs_regs_in_vmcs
                0x00000000401367d3                vt_write_realmode_seg
                0x000000004013691d                vt_writing_sreg
                0x00000000401369a8                vt_reset
                0x0000000040136d2a                prepare_for_sleep
                0x0000000040136dec                cancel_sleep
                0x0000000040136e11                wakeup_main
                0x0000000040136e9c                wakeup_cont
                0x0000000040136fdc                wakeup_init
                0x0000000040137023                call_xsetbv
                0x00000000401370e0                mpumul_64_64
                0x0000000040137100                mpudiv_128_32
                0x0000000040137120                ipchecksum
                0x00000000401371b0                crc32
                0x00000000401371c0                asm_vmlaunch_regs_32
                0x0000000040137240                asm_vmresume_regs_32
                0x00000000401372c0                asm_vmrun_regs_32
                0x0000000040137320                asm_vmrun_regs_nested_32
                0x0000000040137390                asm_vmlaunch_regs_64
                0x0000000040137470                asm_vmresume_regs_64
                0x0000000040137550                asm_vmrun_regs_64
                0x0000000040137600                asm_vmrun_regs_nested_64
                0x00000000401376b2                callrealmode_start
                0x00000000401376c8                callrealmode_start2
                0x0000000040137b54                move_vmm_area32
                0x0000000040137b54                callrealmode_end
                0x0000000040137b79                move_vmm_area64
                0x0000000040137ba8                int_handler
                0x0000000040137c18                int_callfunc
                0x0000000040138000                syscall_entry_sysexit
                0x000000004013802c                syscall_entry_lret
                0x000000004013805c                ret_to_user32
                0x0000000040138068                syscall_entry_sysret64
                0x00000000401380b0                ret_to_user64
                0x0000000040139000                processuser_sysenter
                0x000000004013a000                processuser_no_sysenter
                0x000000004013b000                processuser_syscall
                0x000000004013c140                memset
                0x000000004013c1c0                memcpy
                0x000000004013c200                strcmp
                0x000000004013c240                memcmp
                0x000000004013c280                strlen
                0x000000004013c298                sx_handler
                0x000000004013c2f0                thread_switch
                0x000000004013c310                thread_start0
                0x000000004013c34a                disconnect_pcidev_driver
                0x000000004013c44f                uefi_param_ext_get_phys
                0x000000004013c4e8                core_init
                0x000000004013c4f4                core_mm_read_guest_phys
                0x000000004013c55e                core_mm_write_guest_phys
                0x000000004013c5c8                alloc_handler_descriptor
                0x000000004013c5db                core_io_modify_handler
                0x000000004013c69c                core_io_unregister_handler
                0x000000004013c716                core_io_handle_default
                0x000000004013c9ed                panic_oom
                0x000000004013ca00                core_io_register_handler
                0x000000004013cb22                matched_drhd_u
                0x000000004013cb77                parse_dmar_bios_report
                0x000000004013cb83                ieee1394_init
                0x000000004013cc39                iommu_setup
                0x000000004013cc3a                iodom_init
                0x000000004013cdc3                add_remap
                0x000000004013cdf6                create_dom
                0x000000004013cdfc                pci_conceal_config_write
                0x000000004013ce02                pci_conceal_config_read
                0x000000004013cf03                pci_conceal_new
                0x000000004013d21d                pci_save_config_addr
                0x000000004013d250                pci_append_device
                0x000000004013d27b                pci_dump_pci_dev_list
                0x000000004013d27c                pci_find_driver_for_device
                0x000000004013d28a                pci_find_driver_by_token
                0x000000004013d2e8                pci_config_addr_handler
                0x000000004013d3fe                pci_set_bridge_callback
                0x000000004013d4ce                pci_register_driver
                0x000000004013d51a                pci_register_intr_callback
                0x000000004013d533                pci_readwrite_config_mmio
                0x000000004013d5f3                pci_read_config_mmio
                0x000000004013d616                pci_write_config_mmio
                0x000000004013d639                pci_config_pmio_enter
                0x000000004013d68d                pci_config_pmio_leave
                0x000000004013d6f2                pci_readwrite_config_pmio
                0x000000004013d7a1                pci_read_config_pmio
                0x000000004013d7c2                pci_write_config_pmio
                0x000000004013d7e3                pci_config_read
                0x000000004013d84a                pci_config_write
                0x000000004013d8b1                pci_handle_default_config_write
                0x000000004013d9c3                pci_handle_default_config_read
                0x000000004013e157                pci_config_data_handler
                0x000000004013e210                pci_config_mmio_handler
                0x000000004013e25b                pci_get_bar_info
                0x000000004013e26c                pci_set_bridge_io
                0x000000004013e598                pci_get_modifying_bar_info
                0x000000004013e656                pci_driver_option_get_int
                0x000000004013e6cf                pci_driver_option_get_bool
                0x000000004013e7a4                pci_msi_init
                0x000000004013e8f6                pci_msi_enable
                0x000000004013e922                pci_msi_disable
                0x000000004013e94e                pci_print_device
                0x000000004013ec18                pci_get_bridge_from_bus_no
                0x000000004013ec56                pci_set_bridge_from_bus_no
                0x000000004013efc1                pci_reconnect_device
                0x000000004013f295                pci_possible_new_device
                0x000000004013f359                pci_system_disconnect
                0x000000004013f840                pci_match
                0x000000004013ff88                pci_match_add_compat
                0x000000004013ffb4                pci_match_find_driver
                0x000000004014064d                security_storage_check_lba
                0x0000000040141bc3                pci_monitor_new
                0x0000000040142114                pci_monitor_config_read
                0x0000000040142627                pci_monitor_config_write
                0x00000000401455bb                ahci_new
                0x000000004014582d                ahci_config_read
                0x000000004014588d                ahci_config_write
                0x0000000040145abe                ata_bm_handle_command
                0x0000000040145be9                ata_bm_handle_status
                0x0000000040145c88                ata_bm_handle_prd_table
                0x0000000040145d78                ata_bm_handler
                0x0000000040145e4f                ata_get_cmd_type
                0x0000000040146200                ata_handle_queued_status
                0x0000000040146bc7                ata_channel_lock
                0x0000000040146c2d                ata_channel_unlock
                0x0000000040146c4f                ata_cmdblk_handler
                0x0000000040146d43                ata_ctlblk_handler
                0x0000000040147900                ata_ahci_mode
                0x0000000040147d5d                ata_init_io_handler
                0x0000000040147ded                ata_set_bm_handler
                0x0000000040147e40                ata_set_cmdblk_handler
                0x0000000040147e78                ata_set_ctlblk_handler
                0x0000000040147eb3                ata_config_read
                0x0000000040147f72                ata_config_write
                0x0000000040148107                ata_init_vendor
                0x000000004014812b                ata_bm_handle_device_specific
                0x0000000040148221                atapi_handle_config_data
                0x00000000401484a9                atapi_handle_interrupt_reason
                0x00000000401484f1                atapi_handle_pio_identify_packet
                0x00000000401486df                atapi_handle_packet_data
                0x00000000401486e5                atapi_handle_cmd_packet
                0x0000000040148756                packet_handle_through
                0x0000000040148785                packet_handle_nondata
                0x000000004014879a                packet_handle_config
                0x00000000401487e2                packet_handle_rw
                0x000000004014886e                packet_handle_invalid
                0x0000000040148883                packet_handle_command
                0x00000000401488aa                uhci_init
                0x0000000040149233                uhci_current_frame_number
                0x0000000040149240                dump_td_byvirt
                0x00000000401493cc                dump_td
                0x000000004014948d                dump_qh
                0x0000000040149693                dump_frame
                0x000000004014978c                uhci_dump_all
                0x00000000401499db                uhci_error_status_string
                0x0000000040149fa2                uhci_shadow_buffer
                0x000000004014a21c                uhci_framelist_monitor
                0x000000004014bcd7                scan_gframelist
                0x000000004014c4f5                uhci_create_urb
                0x000000004014c5c8                uhci_destroy_urb
                0x000000004014c6fc                uhci_destroy_unlinked_urbs
                0x000000004014c7d7                uhci_deactivate_urb
                0x000000004014cb6a                uhci_activate_urb
                0x000000004014d0e4                uhci_reactivate_urb
                0x000000004014d186                uhci_submit_control
                0x000000004014d7d0                uhci_submit_interrupt
                0x000000004014d83c                uhci_submit_bulk
                0x000000004014d8a8                uhci_check_urb_advance
                0x000000004014d8d4                uhci_check_advance
                0x000000004014dadb                init_hframelist
                0x000000004014dd74                ehci_conceal_portroute
                0x000000004014ddb1                ehci_init
                0x000000004014ffe2                ehci_dump_qtd
                0x0000000040150043                ehci_dump_qtdm
                0x0000000040150077                ehci_dump_alist
                0x0000000040150138                ehci_dump_urblist
                0x00000000401501cc                ehci_dump_urb
                0x0000000040150700                ehci_dump_async
                0x0000000040150b1a                ehci_dump_all
                0x0000000040152088                ehci_shadow_buffer
                0x000000004015232f                get_gurb_by_address
                0x00000000401523b8                shadow_and_activate_urb
                0x0000000040152698                ehci_deactivate_urb
                0x000000004015283e                deactivate_and_delete_urb
                0x0000000040152acd                ehci_check_urb_advance
                0x0000000040152c22                ehci_check_advance
                0x0000000040152e46                ehci_shadow_async_list
                0x0000000040152f53                ehci_cleanup_urbs
                0x00000000401530b4                ehci_end_monitor_async
                0x000000004015311f                ehci_monitor_async_list
                0x000000004015370e                ehci_submit_control
                0x0000000040153bf8                ehci_submit_bulk
                0x0000000040153bfe                ehci_submit_interrupt
                0x0000000040153cce                xhci_init
                0x0000000040156774                xhci_unmap_guest_erst
                0x0000000040156801                xhci_create_shadow_erst
                0x0000000040156a37                xhci_update_er_and_dev_ctx
                0x00000000401576d3                xhci_sync_state
                0x000000004015772c                xhci_process_cmd_trb
                0x00000000401584ec                xhci_construct_gurbs
                0x00000000401590c4                xhci_append_h_urb_to_ep
                0x0000000040159157                xhci_shadow_g_urb
                0x0000000040159206                xhci_shadow_trbs
                0x00000000401596f0                xhci_hand_eps_back_to_guest
                0x000000004015975e                xhci_set_no_data_trb_hook
                0x00000000401597b8                xhci_ep0_shadowing
                0x00000000401597e4                xhci_ep0_copyback
                0x0000000040159861                xhci_hc_reset
                0x0000000040159980                xhci_submit_control
                0x0000000040159d15                xhci_submit_bulk
                0x0000000040159d1b                xhci_submit_interrupt
                0x0000000040159d21                xhci_check_urb_advance
                0x000000004015a039                xhci_deactivate_urb
                0x000000004015bd98                usbmsc_init_handle
                0x000000004015c16e                usbhub_init_handle
                0x000000004015c1d1                hub_portdevice_register
                0x000000004015cad3                usbccid_init_handle
                0x000000004015cede                usb_set_debug
                0x000000004015cee5                usb_init
                0x000000004015cee6                usb_find_busses
                0x000000004015cfbe                usb_get_busses
                0x000000004015cfc6                usb_get_bus
                0x000000004015cfe1                usb_find_devices
                0x000000004015d02c                usb_open
                0x000000004015d08d                usb_close
                0x000000004015d0a0                usb_resetep
                0x000000004015d0a6                usb_clear_halt
                0x000000004015d0ac                usb_reset
                0x000000004015d0b2                usb_claim_interface
                0x000000004015d0bb                usb_release_interface
                0x000000004015d0c8                usb_set_configuration
                0x000000004015d0f9                usb_set_altinterface
                0x000000004015d12c                usb_control_msg
                0x000000004015d15a                usb_get_string
                0x000000004015d18f                usb_get_string_simple
                0x000000004015d39f                usb_get_descriptor
                0x000000004015d3d8                usb_get_descriptor_early
                0x000000004015d410                usb_get_descriptor_by_endpoint
                0x000000004015d445                usb_bulk_write
                0x000000004015d5eb                usb_interrupt_write
                0x000000004015d791                usb_bulk_read
                0x000000004015d931                usb_interrupt_read
                0x000000004015dad1                usb_register_host
                0x000000004015dbc6                usb_unregister_devices
                0x000000004015dbf7                usb_sc_lock
                0x000000004015dc5a                usb_sc_unlock
                0x000000004015df9c                free_config_descriptors
                0x000000004015eaa5                free_device
                0x000000004015ec03                handle_connect_status
                0x000000004015ecf7                handle_port_reset
                0x000000004015edbd                dprintf_port
                0x000000004015f6cf                usb_init_device_monitor
                0x000000004015f723                usb_init_device
                0x000000004015f77f                usb_new_dev_handle
                0x000000004015f824                usbhid_init_handle
                0x000000004015f94c                usb_hook_register_ex
                0x000000004015fa78                usb_hook_register
                0x000000004015faa8                usb_hook_unregister
                0x000000004015fb1c                usb_hook_process
                0x000000004015ff06                _dprintf
                0x000000004015ff5b                _dprintft
                0x000000004016000d                pro100_io_handler
                0x0000000040160013                pro100_config_read
                0x000000004016002d                pro100_config_write
                0x000000004016013e                pro100_init
                0x0000000040160151                pro100_init_vpn_client
                0x000000004016019b                pro100_sleep
                0x00000000401601bf                pro100_beep
                0x00000000401601e8                pro100_get_ctx
                0x0000000040160262                pro100_alloc_page
                0x0000000040160297                pro100_free_page
                0x00000000401602af                pro100_get_op_size
                0x00000000401602e8                pro100_mem_read
                0x0000000040160356                pro100_read_send_packet
                0x00000000401605fb                pro100_mem_write
                0x0000000040160666                pro100_write
                0x00000000401606d3                pro100_read
                0x000000004016074d                pro100_wait_cu_ru_accepable
                0x000000004016076e                pro100_init_cu_base_addr
                0x00000000401607c4                pro100_init_ru_base_addr
                0x000000004016081a                pro100_flush
                0x0000000040160838                pro100_exec_cu_op
                0x000000004016097a                pro100_send_packet_to_line
                0x0000000040160aab                pro100_generate_int
                0x0000000040160ad4                pro100_write_recv_packet
                0x0000000040160c17                pro100_proc_guest_op
                0x0000000040160e34                pro100_get_int_bit_string
                0x0000000040160e9c                pro100_get_stat_ack_string
                0x0000000040160efc                pro100_get_cu_command_string
                0x0000000040160f6a                pro100_get_ru_command_string
                0x0000000040160fa8                pro100_init_recv_buffer
                0x000000004016109f                pro100_poll_ru
                0x00000000401611a2                pro100_hook_write
                0x000000004016141a                pro100_hook_read
                0x00000000401615d5                pro100_mm_handler
                0x0000000040161716                pro100_alloc_recv_buffer
                0x0000000040161773                pro100_new
                0x00000000401666b0                virtio_net_config_read
                0x0000000040166923                virtio_net_config_write
                0x0000000040166b1a                virtio_net_set_multifunction
                0x0000000040166b1e                virtio_net_set_msix
                0x0000000040166b37                virtio_net_msix
                0x0000000040166cc5                virtio_intr
                0x0000000040166d27                virtio_net_init
                0x00000000401670c8                reg_hpet_mm_handler
                0x0000000040167318                reg_ioapic_mm_handler
                0x000000004016736a                storage_premap_buf
                0x0000000040167370                storage_premap_handle_sectors
                0x000000004016769a                storage_get_num_hc
                0x00000000401676c7                storage_hc_open
                0x000000004016779d                storage_hc_close
                0x00000000401677ea                storage_hc_hook_register
                0x0000000040167862                storage_hc_hook_unregister
                0x0000000040167901                storage_hc_register
                0x0000000040167a9b                storage_hc_unregister
                0x0000000040167b94                storage_hc_scandev
                0x0000000040167bda                storage_hc_dev_open
                0x0000000040167cfb                storage_hc_dev_atacommand
                0x0000000040167e8f                storage_hc_dev_close
                0x0000000040167f47                storage_io_init
                0x0000000040167f57                storage_io_deinit
                0x0000000040167f65                storage_io_get_num_devices
                0x000000004016802e                storage_io_aget_size
                0x000000004016813a                storage_io_aread
                0x00000000401682ef                storage_io_awrite
                0x0000000040168a36                storage_handle_sectors
                0x0000000040168c4e                storage_new
                0x0000000040169114                storage_free
                0x0000000040169122                storage_init
                0x0000000040169314                aes_xts_init
                0x000000004016934a                crypto_find
                0x0000000040169389                crypto_register
                0x00000000401693ce                crypto_init
                0x0000000040169420                crypto_none_init
                0x00000000401694f8                vpn_GetCurrentCpuId
                0x0000000040169506                vpn_GetTickCount
                0x0000000040169537                vpn_NewTimer
                0x0000000040169554                vpn_SetTimer
                0x000000004016956b                vpn_FreeTimer
                0x0000000040169579                vpn_GetPhysicalNicInfo
                0x00000000401695c4                vpn_SendPhysicalNic
                0x00000000401695dd                vpn_SetPhysicalNicRecvCallback
                0x0000000040169605                vpn_GetVirtualNicInfo
                0x0000000040169650                vpn_SendVirtualNic
                0x0000000040169669                vpn_SetVirtualNicRecvCallback
                0x0000000040169694                vpn_ic_rsa_sign
                0x0000000040169c90                msg_vpn_GetCurrentCpuId
                0x0000000040169cab                msg_vpn_ic_rsa_sign
                0x0000000040169d75                msg_vpn_GetTickCount
                0x0000000040169db6                msg_vpn_GetPhysicalNicInfo
                0x0000000040169e18                msg_vpn_SendPhysicalNic
                0x0000000040169ed0                msg_vpn_SetPhysicalNicRecvCallback
                0x0000000040169f20                msg_vpn_GetVirtualNicInfo
                0x0000000040169f82                msg_vpn_SendVirtualNic
                0x000000004016a03a                msg_vpn_SetVirtualNicRecvCallback
                0x000000004016a08a                msg_vpn_NewTimer
                0x000000004016a0ed                msg_vpn_SetTimer
                0x000000004016a1bb                msg_vpn_FreeTimer
                0x000000004016a223                vpn_start
                0x000000004016a5c0                vpn_user_init
                0x000000004016a604                SeFreeConfigEntryList
                0x000000004016a656                SeGetConfigEntry
                0x000000004016a6b5                SeGetConfigStr
                0x000000004016a6e3                SeGetConfigBin
                0x000000004016a709                SeGetConfigInt64
                0x000000004016a72f                SeGetConfigInt
                0x000000004016a755                SeGetConfigBool
                0x000000004016a7eb                SeIsSplitChar
                0x000000004016a84f                SeGetKeyAndValue
                0x000000004016a9e7                SeLoadConfigEntryListFromBuf
                0x000000004016ab61                SeLoadConfigEntryList
                0x000000004016ab96                SePKeyPasswordCallbackFunction
                0x000000004016abcc                SeDhFree
                0x000000004016ac03                SeRsaVerifyWithPadding
                0x000000004016acca                SeRsaSignWithPadding
                0x000000004016ad72                SeRsaPublicDecrypt
                0x000000004016adfb                SeRsaPrivateEncrypt
                0x000000004016ae84                SeRsaPrivateDecrypt
                0x000000004016af05                SeRsaPublicEncrypt
                0x000000004016af86                SeGetCertSha1
                0x000000004016afc3                SeGetCertMd5
                0x000000004016b000                SeBinToBigNum
                0x000000004016b032                SeDhCompute
                0x000000004016b0a5                SeBufToBigNum
                0x000000004016b0c2                SeBigNumToBuf
                0x000000004016b130                SeDhNew
                0x000000004016b1e4                SeDhNewGroup2
                0x000000004016b1fc                SeRsaPublicToBuf
                0x000000004016b231                SeRsaPublicToBin
                0x000000004016b289                SeRsaPublicSize
                0x000000004016b2dc                SeCheckSignature
                0x000000004016b308                SeGetKeyFromCert
                0x000000004016b331                SeCompareCert
                0x000000004016b35d                SeCheckCertAndKey
                0x000000004016b389                SeIsBase64
                0x000000004016b3f1                SeFreePKey
                0x000000004016b405                SeFreeKey
                0x000000004016b421                SeCheckCert
                0x000000004016b46a                SeIsCertSignedByCert
                0x000000004016b4c8                SeBioToKey
                0x000000004016b5ab                SeGetCertIssuerName
                0x000000004016b631                SeGetCertSubjectName
                0x000000004016b6b7                SeFreeX509
                0x000000004016b6cb                SeFreeCert
                0x000000004016b6ef                SeFreeBio
                0x000000004016b703                SeNewBio
                0x000000004016b719                SeRsaGen
                0x000000004016b874                SeKeyToBio
                0x000000004016b960                SeCertToBio
                0x000000004016b9a6                SeBioToBuf
                0x000000004016ba20                SeBigNumToStr
                0x000000004016ba84                SeKeyToBuf
                0x000000004016bad5                SeX509ToCert
                0x000000004016bb7e                SeBioToCert
                0x000000004016bbc1                SeSaveKey
                0x000000004016bc0c                SeCertToBuf
                0x000000004016bc5d                SeSaveCert
                0x000000004016bca5                SeBufToBio
                0x000000004016bcfd                SeBufToCert
                0x000000004016bd40                SeCloneCert
                0x000000004016bd89                SeLoadCert
                0x000000004016bdc8                SeBufToKey
                0x000000004016be15                SeCloneKey
                0x000000004016be69                SeLoadKey
                0x000000004016bf08                SeSha1
                0x000000004016bf2c                SeMacSha1
                0x000000004016c089                SeMacSha196
                0x000000004016c0d5                SeHashForSignBySHA1
                0x000000004016c156                SeRsaVerifyWithSha1
                0x000000004016c1f3                SeRsaSignWithSha1
                0x000000004016c289                SeMd5
                0x000000004016c2ad                SeDes3Encrypt
                0x000000004016c32f                SeDes3Decrypt
                0x000000004016c3b1                SeDesNewKeyValue
                0x000000004016c405                SeDes3NewKey
                0x000000004016c472                SeDesNewKey
                0x000000004016c486                SeDesRandKeyValue
                0x000000004016c4a3                SeDes3RandKey
                0x000000004016c4df                SeDesRandKey
                0x000000004016c51c                SeDesFreeKeyValue
                0x000000004016c538                SeDes3FreeKey
                0x000000004016c566                SeDesFreeKey
                0x000000004016c574                SeRand
                0x000000004016c58c                SeRand64
                0x000000004016c5a9                SeRand32
                0x000000004016c5c5                SeRand16
                0x000000004016c5e2                SeRand8
                0x000000004016c5ff                SeRand1
                0x000000004016c615                SeInitCrypto
                0x000000004016c652                SeFreeCrypto
                0x000000004016c661                SeIkeStrToPassword
                0x000000004016c6c1                SeIkePhase1CryptIdToKeySize
                0x000000004016c6de                SeIkePhase2CryptIdToKeySize
                0x000000004016c6fb                SeIkeStrToPhase1Mode
                0x000000004016c72e                SeIkeStrToPhase1CryptId
                0x000000004016c78d                SeIkeStrToPhase1HashId
                0x000000004016c7bc                SeIkeStrToPhase2CryptId
                0x000000004016c81b                SeIkeStrToPhase2HashId
                0x000000004016c84a                SeIkeIsZeroIP
                0x000000004016c87c                SeIkeInitIPv6Address
                0x000000004016c8ba                SeIkeInitIPv4Address
                0x000000004016c8ee                SeIkeGetIPv6Address
                0x000000004016c90e                SeIkeGetIPv4Address
                0x000000004016c929                SeIkeIpAddressToStr
                0x000000004016c967                SeIkeBuildDataPayload
                0x000000004016c9a2                SeIkeBuildTransformValue
                0x000000004016ca5f                SeIkeBuildTransformValueList
                0x000000004016cacc                SeIkeBuildTransformPayload
                0x000000004016cb45                SeIkeBuildIdPayload
                0x000000004016cbb9                SeIkeBuildCertPayload
                0x000000004016cc17                SeIkeBuildCertRequestPayload
                0x000000004016cc75                SeIkeBuildNoticePayload
                0x000000004016cd00                SeIkeBuildDeletePayload
                0x000000004016cdd0                SeIkeGetFirstPayloadType
                0x000000004016cdf0                SeIkeBuildPayloadList
                0x000000004016cf06                SeIkeBuildSaPayload
                0x000000004016cf8c                SeIkeBuildProposalPayload
                0x000000004016d035                SeIkeBuildPayload
                0x000000004016d117                SeIkeGetPayload
                0x000000004016d16a                SeIkeGetPayloadNum
                0x000000004016d1a9                SeIkeNewPayload
                0x000000004016d1ba                SeIkeNewDeletePayload
                0x000000004016d1e8                SeIkeNewNoticePayload
                0x000000004016d270                SeIkeNewCertRequestPayload
                0x000000004016d2bf                SeIkeNewCertPayload
                0x000000004016d30e                SeIkeNewIdPayload
                0x000000004016d375                SeIkeNewTransformPayload
                0x000000004016d3a6                SeIkeNewProposalPayload
                0x000000004016d415                SeIkeNewSaPayload
                0x000000004016d433                SeIkeNewDataPayload
                0x000000004016d46a                SeIkeNewTransformValue
                0x000000004016d48b                SeIkeFreeTransformValueList
                0x000000004016d4ca                SeIkeParseTransformValueList
                0x000000004016d64d                SeIkeParseTransformPayload
                0x000000004016d6b5                SeIkeFreeTransformPayload
                0x000000004016d6d7                SeIkeParseIdPayload
                0x000000004016d751                SeIkeFreeIdPayload
                0x000000004016d773                SeIkeParseCertPayload
                0x000000004016d7d8                SeIkeFreeCertPayload
                0x000000004016d7fa                SeIkeParseCertRequestPayload
                0x000000004016d85f                SeIkeFreeCertRequestPayload
                0x000000004016d881                SeIkeParseNoticePayload
                0x000000004016d944                SeIkeFreeNoticePayload
                0x000000004016d97c                SeIkeFreeDeletePayload
                0x000000004016d9cc                SeIkeParseDeletePayload
                0x000000004016daca                SeIkeParseDataPayload
                0x000000004016dafd                SeIkeFreeDataPayload
                0x000000004016db14                SeIkeFreePayloadList
                0x000000004016db53                SeIkeFreeSaPayload
                0x000000004016db73                SeIkeFreeProposalPayload
                0x000000004016dbab                SeIkeFreePayload
                0x000000004016dc41                SeIkeParsePayloadListEx
                0x000000004016ddd4                SeIkeParsePayloadList
                0x000000004016ddea                SeIkeParseSaPayload
                0x000000004016dea0                SeIkeParseProposalPayload
                0x000000004016df43                SeIkeParsePayload
                0x000000004016e028                SeIkeEncrypt
                0x000000004016e0c6                SeIkeEncryptWithPadding
                0x000000004016e176                SeIkeBuild
                0x000000004016e2bb                SeIkeDecrypt
                0x000000004016e355                SeIkeFree
                0x000000004016e385                SeIkeParseEx
                0x000000004016e559                SeIkeParseHeader
                0x000000004016e56c                SeIkeParse
                0x000000004016e57f                SeIkeNew
                0x000000004016e5dd                VPN_IPsec_Client_Start
                0x000000004016e606                VPN_IPsec_Client_Stop
                0x000000004016e61a                SeIntInit
                0x000000004016e630                SeIntFree
                0x000000004016e64d                VPN_IPsec_Init
                0x000000004016e69d                VPN_IPsec_Free
                0x000000004016e6d3                SeSysMemoryAlloc
                0x000000004016e6f2                SeSysMemoryReAlloc
                0x000000004016e71b                SeSysMemoryFree
                0x000000004016e737                SeSysGetCurrentCpuId
                0x000000004016e752                SeSysNewLock
                0x000000004016e76d                SeSysLock
                0x000000004016e789                SeSysUnlock
                0x000000004016e7a5                SeSysFreeLock
                0x000000004016e7c1                SeSysGetTickCount
                0x000000004016e7dc                SeSysNewTimer
                0x000000004016e802                SeSysSetTimer
                0x000000004016e81e                SeSysFreeTimer
                0x000000004016e83a                SeSysGetPhysicalNicInfo
                0x000000004016e85b                SeSysSendPhysicalNic
                0x000000004016e885                SeSysSetPhysicalNicRecvCallback
                0x000000004016e8b1                SeSysGetVirtualNicInfo
                0x000000004016e8d2                SeSysSendVirtualNic
                0x000000004016e8ff                SeSysSetVirtualNicRecvCallback
                0x000000004016e92e                SeSysSaveData
                0x000000004016e957                SeSysLoadData
                0x000000004016e980                SeSysFreeData
                0x000000004016e99f                SeSysRsaSign
                0x000000004016e9d8                SeSysLog
                0x000000004016ea09                SeRsaSign
                0x000000004016ea90                Se4ParseIpPacketUDPv4
                0x000000004016eb6b                Se4FreeIpHeaderInfo
                0x000000004016eb93                Se4IpChecksum
                0x000000004016ec07                Se4AdjustTcpMss
                0x000000004016eda2                Se4BuildIcmpEchoPacket
                0x000000004016ee41                Se4ParseIpPacketICMPv4
                0x000000004016ef61                Se4IpCheckChecksum
                0x000000004016ef99                Se4Tick
                0x000000004016efb5                Se4BroadcastMacAddress
                0x000000004016efbb                Se4SendEthPacket
                0x000000004016f06e                Se4SendIpFragmentNow
                0x000000004016f09b                Se4InitArpEntryList
                0x000000004016f0ae                Se4FreeArpEntryList
                0x000000004016f0ed                Se4FlushArpEntryList
                0x000000004016f19b                Se4SearchArpEntryList
                0x000000004016f20a                Se4AddArpEntryList
                0x000000004016f2d1                Se4SearchArpWaitList
                0x000000004016f30d                Se4InitArpWaitList
                0x000000004016f320                Se4FreeArpWaitList
                0x000000004016f35f                Se4InsertIpWait
                0x000000004016f3c8                Se4InitIpWaitList
                0x000000004016f3db                Se4FreeIpWait
                0x000000004016f3f8                Se4FlushIpWaitList
                0x000000004016f4ae                Se4FreeIpWaitList
                0x000000004016f4ed                Se4InitIpCombineList
                0x000000004016f500                Se4SearchIpCombineList
                0x000000004016f55e                Se4InitIpFragmentList
                0x000000004016f571                Se4InsertIpCombine
                0x000000004016f651                Se4FreeIpFragmentList
                0x000000004016f690                Se4FreeIpCombine
                0x000000004016f6bc                Se4FreeIpCombineList
                0x000000004016f6fd                Se4FlushIpCombineList
                0x000000004016f7d4                Se4Free
                0x000000004016f80c                Se4And
                0x000000004016f83b                Se4GetNetworkAddress
                0x000000004016f841                Se4Or
                0x000000004016f870                Se4Not
                0x000000004016f89b                Se4GetHostAddress
                0x000000004016f8b0                Se4GetBroadcastAddress
                0x000000004016f8da                Se4GenerateSubnetMask32
                0x000000004016f8fc                Se4IPToStr
                0x000000004016f93a                Se4ZeroIP
                0x000000004016f956                Se4StrToIP
                0x000000004016f9f6                Se4IPToUINT
                0x000000004016fa1b                Se4SendArpDoProcess
                0x000000004016fb0b                Se4SendArpRequest
                0x000000004016fb68                Se4ProcessArpWaitList
                0x000000004016fc20                Se4MainProc
                0x000000004016fc45                Se4SendArpResponse
                0x000000004016fd1b                Se4IsBroadcastAddress
                0x000000004016fd32                Se4Cmp
                0x000000004016fd5c                Se4CmpArpEntry
                0x000000004016fd94                Se4CmpArpWaitEntry
                0x000000004016fdcc                Se4SendWaitingIpWait
                0x000000004016feb1                Se4CmpIpCombineList
                0x000000004016ff2b                Se4IsInSameNetwork
                0x000000004016ff5f                Se4MacIpRelationKnown
                0x000000004016fffd                Se4ParseIpPacket
                0x0000000040170140                Se4IsZeroIP
                0x0000000040170156                Se4Init
                0x0000000040170255                Se4CheckUnicastAddress
                0x0000000040170299                Se4StrToIP32
                0x00000000401702ae                Se4UINTToIP
                0x00000000401702d3                Se4SendRawIp
                0x000000004017041e                Se4SendIpFragment
                0x000000004017054f                Se4SendIp
                0x0000000040170629                Se4SendIcmpEchoRequest
                0x00000000401706a5                Se4SendIcmpEchoResponse
                0x0000000040170721                Se4RecvIpComplete
                0x00000000401707e8                Se4CombineIp
                0x0000000040170a00                Se4SendIcmp
                0x0000000040170aa2                Se4SendUdp
                0x0000000040170bcc                Se4RecvIp
                0x0000000040170e5d                Se4RecvArpRequest
                0x0000000040170f66                Se4RecvArpResponse
                0x0000000040170fa4                Se4RecvArp
                0x0000000040171049                Se4RecvEthPacket
                0x00000000401710c2                Se4GenerateSubnetMask
                0x00000000401710d7                Se4IsSubnetMask
                0x0000000040171113                Se4IPToStr32
                0x000000004017112a                Se6CmpIpCombineList
                0x00000000401711f0                Se6CmpNdpWaitEntry
                0x0000000040171252                Se6CmpNeighborEntry
                0x00000000401712b4                Se6IsGuestNode
                0x0000000040171384                Se6FreeIpHeaderInfo
                0x00000000401713ac                Se6IpChecksum
                0x0000000040171420                Se6CalcChecksum
                0x00000000401714cf                Se6BuildIcmpEchoPacket
                0x00000000401715b4                Se6ParseIpPacketUDPv6
                0x00000000401716e1                Se6ParseIpPacketICMPv6
                0x00000000401718ee                Se6BroadcastMacAddress
                0x00000000401718f4                Se6SendEthPacket
                0x00000000401719a7                Se6SendIpFragmentNow
                0x00000000401719d4                Se6InitNeighborEntryList
                0x00000000401719e7                Se6FreeNeighborEntryList
                0x0000000040171a26                Se6FlushNeighborEntryList
                0x0000000040171ad4                Se6SearchNeighborEntryList
                0x0000000040171b21                Se6AddNeighborEntryList
                0x0000000040171be7                Se6SearchNdpWaitList
                0x0000000040171c2c                Se6InitNdpWaitList
                0x0000000040171c3f                Se6FreeNdpWaitList
                0x0000000040171c7e                Se6InsertIpWait
                0x0000000040171cfa                Se6InitIpWaitList
                0x0000000040171d0d                Se6FreeIpWait
                0x0000000040171d2a                Se6SendWaitingIpWait
                0x0000000040171e3f                Se6FreeIpWaitList
                0x0000000040171e7e                Se6InitIpCombineList
                0x0000000040171e91                Se6SearchIpCombineList
                0x0000000040171f11                Se6InitIpFragmentList
                0x0000000040171f24                Se6FreeIpFragmentList
                0x0000000040171f63                Se6FreeIpCombine
                0x0000000040171f92                Se6FreeIpCombineList
                0x0000000040171fd3                Se6Free
                0x0000000040172017                Se6Tick
                0x0000000040172033                Se6FlushIpWaitList
                0x00000000401720ef                Se6FlushIpCombineList
                0x00000000401721c9                Se6InsertIpCombine
                0x00000000401722e2                Se6GenerateEui64Address
                0x0000000040172326                Se6GenerateMulticastMacAddress
                0x0000000040172358                Se6GetAllNodeMulticastAddr
                0x0000000040172385                Se6GetAllRouterMulticastAddr
                0x00000000401723b2                Se6GetIPAddrType
                0x00000000401724f5                Se6CheckUnicastAddress
                0x0000000040172539                Se6And
                0x000000004017257a                Se6GetPrefixAddress
                0x0000000040172588                Se6IsInSameNetwork
                0x0000000040172606                Se6ParseIpPacket
                0x00000000401727f3                Se6Or
                0x0000000040172834                Se6Not
                0x0000000040172869                Se6GetHostAddress
                0x0000000040172898                Se6IsNetworkPrefixAddress
                0x00000000401728c4                Se6GenerateSubnetMask
                0x000000004017291e                Se6LocalSubnet
                0x0000000040172931                Se6MacIpRelationKnown
                0x0000000040172a24                Se6AddGuestNode
                0x0000000040172ae1                Se6GetSoliciationMulticastAddr
                0x0000000040172b73                Se6SendIcmpNeighborSoliciation
                0x0000000040172c98                Se6SendNeighborSoliciationDoProcess
                0x0000000040172d20                Se6ProcessNdpWaitList
                0x0000000040172dde                Se6SendNeighborSoliciation
                0x0000000040172e54                Se6SendRawIp
                0x0000000040173053                Se6SendIpFragment
                0x0000000040173078                Se6SendIp
                0x00000000401731e6                Se6SendIcmpEchoRequest
                0x000000004017328a                Se6SendIcmpEchoResponse
                0x000000004017332e                Se6SendIcmp
                0x0000000040173419                Se6SendIcmpNeighborAdvertisement
                0x0000000040173546                Se6SendUdp
                0x0000000040173658                Se6SubnetMaskToInt
                0x00000000401736b6                Se6SendIcmpRouterAdvertisement
                0x0000000040173859                Se6MainProc
                0x00000000401738a9                Se6RecvIpComplete
                0x0000000040173c18                Se6CombineIp
                0x0000000040173e42                Se6RecvIp
                0x000000004017405c                Se6RecvEthPacket
                0x00000000401740c1                Se6IsSubnetMask
                0x0000000040174124                Se6Cmp
                0x0000000040174152                Se6IsZeroIP
                0x0000000040174171                Se6IPToStr
                0x00000000401742c5                Se6IPItemStrToChars
                0x00000000401743b8                Se6CheckIPItemStr
                0x0000000040174418                Se6ZeroIP
                0x0000000040174437                Se6GenerateEui64GlobalAddress
                0x00000000401744e5                Se6GenerateEui64LocalAddress
                0x0000000040174543                Se6Init
                0x00000000401746ba                Se6StrToIP
                0x000000004017480d                Se6CheckSubnetLength
                0x000000004017481a                SeTimerEntryCompare
                0x0000000040174853                SeEthGetInfo
                0x000000004017487b                SeEthSendAdd
                0x00000000401748a1                SeEthParseEthernetPacket
                0x000000004017498b                SeEthGenRandMacAddress
                0x00000000401749dc                SeLoad
                0x0000000040174a46                SeSave
                0x0000000040174a64                SeTick
                0x0000000040174a77                SeGetCurrentCpuId
                0x0000000040174a8a                SeNewLock
                0x0000000040174ab8                SeTimerNew
                0x0000000040174b17                SeEthNew
                0x0000000040174c0c                SeLock
                0x0000000040174c48                SeUnlock
                0x0000000040174c71                SeEthGetNextRecvPacket
                0x0000000040174cac                SeTick64Internal
                0x0000000040174cf4                SeInitKernel
                0x0000000040174d21                SeTick64
                0x0000000040174d43                SeTimerAdjust
                0x0000000040174dc2                SeTimerCallback
                0x0000000040174ec4                SeTimerSet
                0x0000000040174f47                SeEthDeleteOldSenderMacList
                0x0000000040175010                SeEthAddSenderMacList
                0x00000000401750f5                SeEthSend
                0x0000000040175186                SeEthSendAll
                0x000000004017525a                SeEthIsSenderMacAddressExistsInList
                0x0000000040175301                SeEthNicCallback
                0x00000000401753f5                SeDeleteLock
                0x0000000040175411                SeFreeKernel
                0x000000004017542a                SeTimerFree
                0x0000000040175484                SeEthFree
                0x0000000040175529                SeLogArgs
                0x000000004017555a                SeDebug
                0x00000000401755aa                SeDebugBin
                0x0000000040175604                SeFatal
                0x0000000040175654                SeInfo
                0x00000000401756a4                SeError
                0x00000000401756f4                SeWarning
                0x0000000040175744                SeLog
                0x0000000040175787                SeB64CodeToChar
                0x00000000401757c3                SeB64CharToCode
                0x0000000040175802                SeIsZero
                0x0000000040175830                SeReplaceListPointer
                0x0000000040175880                SeIsInListStr
                0x00000000401758d7                SeIsInList
                0x0000000040175914                SeCompareStr
                0x0000000040175938                SeSetSortFlag
                0x0000000040175941                SeSetCmp
                0x000000004017595d                SeFastSwap
                0x000000004017598a                SeQSort
                0x0000000040175c29                SeSort
                0x0000000040175c55                SeBSearch
                0x0000000040175d1f                SeSearch
                0x0000000040175d7f                SeFifoSize
                0x0000000040175d8e                SeDumpBuf
                0x0000000040175db8                SeSeekBuf
                0x0000000040175de4                SeClearBuf
                0x0000000040175df8                SeEndian16
                0x0000000040175e14                SeSwap16
                0x0000000040175e30                SeSwap32
                0x0000000040175e5d                SeEndian32
                0x0000000040175e63                SeSwap64
                0x0000000040175ec2                SeEndian64
                0x0000000040175ec8                SeMalloc
                0x0000000040175f08                SeNewFifo
                0x0000000040175f3d                SeNewBuf
                0x0000000040175f72                SeReAlloc
                0x0000000040175fdf                SePush
                0x000000004017602d                SePop
                0x0000000040176087                SeDeleteAll
                0x00000000401760b2                SeDelete
                0x0000000040176166                SeAdd
                0x00000000401761bb                SeInsert
                0x00000000401762e3                SeInsertStr
                0x000000004017632f                SeClearFifo
                0x0000000040176360                SeAdjustBufSize
                0x0000000040176389                SeMemSize
                0x00000000401763be                SeFree
                0x00000000401763f0                SeFreeStack
                0x000000004017640d                SeFreeList
                0x000000004017642a                SeFreeFifo
                0x0000000040176446                SeFreeQueue
                0x0000000040176463                SeFreeBufWithoutBuffer
                0x0000000040176477                SeFreeBuf
                0x0000000040176493                SeIsLittleEndian
                0x0000000040176499                SeIsBigEndian
                0x000000004017649f                SeCmp
                0x00000000401764eb                SeCmpBuf
                0x0000000040176520                SeCmpEx
                0x0000000040176551                SeCopy
                0x000000004017657a                SeCopyToArray
                0x000000004017659d                SeToArray
                0x00000000401765d6                SeWriteFifo
                0x0000000040176651                SeInsertQueue
                0x0000000040176684                SeReadFifo
                0x0000000040176748                SeGetNext
                0x000000004017678e                SeGetNextInt
                0x00000000401767b8                SePeekFifo
                0x00000000401767f2                SePeekNext
                0x0000000040176830                SeWriteBuf
                0x0000000040176897                SeReadDump
                0x00000000401768fb                SeAddBufStr
                0x000000004017692e                SeWriteBufInt64
                0x000000004017696f                SeWriteBufInt
                0x00000000401769ad                SeWriteBufStr
                0x0000000040176a00                SeWriteBufBuf
                0x0000000040176a1f                SeWriteBufLine
                0x0000000040176a6b                SeMemToBuf
                0x0000000040176ab2                SeCloneBuf
                0x0000000040176acf                SeRandBuf
                0x0000000040176b08                SeSwap
                0x0000000040176b5c                SeClone
                0x0000000040176b8e                SeInsertQueueInt
                0x0000000040176bbf                SeZero
                0x0000000040176bda                SeReadBuf
                0x0000000040176c59                SeReadBufInt64
                0x0000000040176c94                SeReadBufInt
                0x0000000040176cce                SeReadBufStr
                0x0000000040176d70                SeReadBufFromBuf
                0x0000000040176dde                SeReadRemainBuf
                0x0000000040176e07                SeZeroMalloc
                0x0000000040176e30                SeB64Encode
                0x0000000040177023                SeB64Decode
                0x0000000040177206                SeNewStack
                0x0000000040177234                SeNewQueue
                0x000000004017725b                SeNewList
                0x00000000401772a1                SeCloneList
                0x00000000401772e3                SeBuildICMPv6OptionValue
                0x0000000040177362                SeBuildICMPv6Options
                0x000000004017740d                SeParseICMPv6Options
                0x00000000401774c4                SeFreePacketList
                0x0000000040177503                SeFreePacketListWithoutBuffer
                0x0000000040177542                SeGetNextHeaderFromQueue
                0x0000000040177563                SeBuildAndAddIPv6PacketOptionHeader
                0x00000000401775ed                SeBuildIPv6Packet
                0x00000000401777a8                SeBuildIPv6PacketWithFragment
                0x000000004017794c                SeParseIPv6ExtHeader
                0x0000000040177ab6                SeParseIPv6Packet
                0x0000000040177b18                SeParsePacketL3IPv6
                0x0000000040177b4c                SeParsePacketL3IPv4
                0x0000000040177bfa                SeParsePacketL3ARPv4
                0x0000000040177c24                SeParsePacketL2
                0x0000000040177cae                SeFreePacket
                0x0000000040177cc2                SeParsePacket
                0x0000000040177d46                SeSecCmpIkeSa
                0x0000000040177e14                SeSecCalcP2Iv
                0x0000000040177eb1                SeSecCalcP1Iv
                0x0000000040177f52                SeSecCalcKEYMATFull
                0x0000000040178058                SeSecCalcKEYMAT
                0x000000004017810c                SeSecCalcKa
                0x00000000401781d5                SeSecCalcP1KeySet
                0x00000000401783fb                SeSecForceReconnect
                0x000000004017842f                SeSecLifeSeconds64bit
                0x000000004017844a                SeSecGetIPsecSa
                0x000000004017848b                SeSecNewIkeSa
                0x0000000040178524                SeSecFreeP1KeySet
                0x0000000040178566                SeSecGenIkeSaMessageId
                0x00000000401785d7                SeSecGenIkeSaInitCookie
                0x000000004017864b                SeSecInitSaList
                0x0000000040178679                SeSecSearchIPsecSaBySpi
                0x0000000040178700                SeSecSearchIkeSaBySpi
                0x00000000401787ba                SeSecSearchIkeSa
                0x0000000040178874                SeSecNewSpi
                0x000000004017888e                SeSecGenIPsecSASpi
                0x00000000401788ff                SeSecStrToAuthMethod
                0x0000000040178963                SeSecTick
                0x0000000040178981                SeSecCheckIkeSaExpires
                0x0000000040178a27                SeSecCheckIPsecSaExpires
                0x0000000040178ad5                SeSecSetTimerCallback
                0x0000000040178af9                SeSecAddTimer
                0x0000000040178b1d                SeSecRecvMain6
                0x0000000040178d6f                SeSecNewIPsecSa
                0x0000000040178ec2                SeSecDoInterval
                0x0000000040178f1e                SeSecSetRecvUdpCallback
                0x0000000040178f42                SeSecSetRecvEspCallback
                0x0000000040178f66                SeSecSetRecvVirtualIpCallback
                0x0000000040178f8a                SeSecSendUdp
                0x0000000040178fcd                SeSecSendMain1
                0x00000000401793ca                SeSecSendMain3
                0x00000000401794c7                SeSecRecvMain2
                0x000000004017956f                SeSecSendMain5
                0x000000004017981c                SeSecRecvMain4
                0x00000000401799ff                SeSecSendIkeSaMsgInfo
                0x0000000040179c58                SeSecSendIkeSaMsgInfoSimple
                0x0000000040179cb1                SeSecSendIkeSaDeleteMsg
                0x0000000040179d3b                SeSecSendIPsecSaDeleteMsg
                0x0000000040179daf                SeSecFreeIPsecSa
                0x0000000040179e20                SeSecProcessIkeSaMsgInfo
                0x000000004017a127                SeSecDeleteExpiredIPsecSa
                0x000000004017a1d6                SeSecFreeIkeSa
                0x000000004017a391                SeSecDeleteExpiredIkeSa
                0x000000004017a4e4                SeSecFreeSaList
                0x000000004017a561                SeSecFreeMain
                0x000000004017a575                SeSecFree
                0x000000004017a598                SeSecSendIkeSaMsgPhase2FinalHash
                0x000000004017a727                SeSecProcessIkeSaMsgPhase2
                0x000000004017ab59                SeSecSendIkeSaMsgPhase2
                0x000000004017b02b                SeSecRecvAggr
                0x000000004017b891                SeSecProcessIkeSaMsgPhase1
                0x000000004017b8e7                SeSecProcessIkeSaMsg
                0x000000004017b93b                SeSecUdpRecvCallback
                0x000000004017bb8e                SeSecSendAggr
                0x000000004017c1b8                SeSecStartVpnConnect
                0x000000004017c1ea                SeSecProcessMain
                0x000000004017c2c6                SeSecInitMain
                0x000000004017c2df                SeSecInit
                0x000000004017c3ef                SeSecTimerCallback
                0x000000004017c406                SeSecSendEsp
                0x000000004017c443                SeSecVirtualIpRecvCallback
                0x000000004017c647                SeSecSendVirtualIp
                0x000000004017c673                SeSecEspRecvCallback
                0x000000004017c7e2                SeMakeCharArray
                0x000000004017c81b                SeFreeToken
                0x000000004017c86c                SeNullTokenList
                0x000000004017c893                SeDefaultTokenSplitChars
                0x000000004017c899                Se4BitToHex
                0x000000004017c8a9                SeHexTo4Bit
                0x000000004017c8dd                SeStrCmp
                0x000000004017c944                SeStrnCmp
                0x000000004017c9c6                SeToUpper
                0x000000004017c9d3                SeStrCmpi
                0x000000004017ca68                SeStrnCmpi
                0x000000004017cb1d                SeToLower
                0x000000004017cb2a                SeStrCheckLen
                0x000000004017cb67                SeStrCheckSize
                0x000000004017cb7f                SeStrLen
                0x000000004017cbb5                SeReadNextLine
                0x000000004017cc67                SeIsAllLowerStr
                0x000000004017ccbf                SeIsAllUpperStr
                0x000000004017cd17                SeIsCharInStr
                0x000000004017cd5f                SeNormalizeCrlf
                0x000000004017cdfe                SeEndWith
                0x000000004017ce57                SeTrimCrlf
                0x000000004017ce9e                SeHexToInt64
                0x000000004017cf2a                SeHexToInt
                0x000000004017cfa9                SeToInt
                0x000000004017d000                SeToInt64
                0x000000004017d062                SeStrLower
                0x000000004017d097                SeStrUpper
                0x000000004017d0cc                SeStrCat
                0x000000004017d155                SeStrCpy
                0x000000004017d201                SeStrToBin
                0x000000004017d2f8                SeStrToBinEx
                0x000000004017d364                SeStrToMac
                0x000000004017d37a                SeSearchStrEx
                0x000000004017d4ca                SeSearchStr
                0x000000004017d4dd                SeSearchStri
                0x000000004017d4f0                SeCalcReplaceStrEx
                0x000000004017d594                SeReplaceStrEx
                0x000000004017d6f1                SeReplaceStri
                0x000000004017d705                SeReplaceStr
                0x000000004017d719                SeCopyStr
                0x000000004017d754                SeUniqueToken
                0x000000004017d88a                SeParseTokenWithNullStr
                0x000000004017d9e4                SeParseToken
                0x000000004017db78                SeStartWith
                0x000000004017dc03                SeTrimRight
                0x000000004017dcf6                SeTrimLeft
                0x000000004017dd98                SeTrim
                0x000000004017ddb1                SeTrimCopy
                0x000000004017ddd1                SeIsEmptyStr
                0x000000004017de0f                SeToHex64
                0x000000004017debf                SeToHex
                0x000000004017df6d                SeToStr
                0x000000004017e019                SeToStr64
                0x000000004017e0d3                SeToStr3
                0x000000004017e212                SeStrSize
                0x000000004017e225                SeFormatEx
                0x000000004017e7bd                SeFormatArgs
                0x000000004017e803                SeFormat
                0x000000004017e841                SeMacToStr
                0x000000004017e889                SeBinToStrEx
                0x000000004017e91f                SeBinToStr
                0x000000004017e9b5                SeVpnRecvIpV4PacketCallback
                0x000000004017ea0c                SeVpnRecvIpV6PacketCallback
                0x000000004017ea63                SeVpnInitIpStack
                0x000000004017ed05                SeVpnFreeIpStack
                0x000000004017ed99                SeVpnMainInit
                0x000000004017ee9a                SeVpnMainFree
                0x000000004017eeb2                SeVpnRecvEtherPacket
                0x000000004017ef17                SeVpnSendEtherPacket
                0x000000004017ef48                SeVpnMainProcRecvEtherPacket
                0x000000004017efe3                SeVpnStatusChanged
                0x000000004017eff0                SeVpnMainProcess
                0x000000004017f0f0                SeVpnMainHandler
                0x000000004017f131                SeVpnTimerCallback
                0x000000004017f14d                SeVpnEthRecvCallback
                0x000000004017f169                SeVpnTick
                0x000000004017f179                SeVpnAddTimer
                0x000000004017f191                SeVpnDoInterval
                0x000000004017f1d5                SeVpnFreeConfig
                0x000000004017f1e9                SeVpnFree
                0x000000004017f22e                SeVpnLoadConfig
                0x00000000401807d7                SeVpnInit
                0x00000000401808db                SeVpn4ClientSetTimerCallback
                0x00000000401808e9                SeVpn4ClientSetRecvUdpCallback
                0x00000000401808f7                SeVpn4ClientSetRecvEspCallback
                0x0000000040180905                SeVpn4ClientSetRecvVirtualIpCallback
                0x0000000040180913                SeVpn4ClientSendUdp
                0x0000000040180980                SeVpn4ClientSendEsp
                0x00000000401809db                SeVpn4ClientSendVirtualIp
                0x0000000040180a0e                SeVpn4IPsecSendPing
                0x0000000040180b46                SeVpn4IPsecInputFromPhysical
                0x0000000040180bfd                SeVpn4IPsecInputFromVirtual
                0x0000000040180c5a                SeVpn4FreeIPsec
                0x0000000040180c72                SeVpn4InitSecConfig
                0x0000000040180e21                SeVpn4InitIPsec
                0x0000000040180ecd                SeVpn4DoInterval
                0x0000000040180ee9                SeVpn4Tick
                0x0000000040180f05                SeVpn4IPsecMainProc
                0x0000000040180f7a                SeVpn4MainProc
                0x0000000040180f99                SeVpn4ClientGetTick
                0x0000000040180fb2                SeVpn4SetTimer
                0x0000000040180fc9                SeVpn4ClientAddTimer
                0x0000000040180fe4                SeVpn4DhcpSendResponse
                0x00000000401810e8                SeVpn4DhcpOptionsToBuf
                0x00000000401811a6                SeVpn4NewDhcpOption
                0x00000000401811f5                SeVpn4DhcpBuildDhcpOptionList
                0x0000000040181401                SeVpn4DhcpSearchOption
                0x000000004018143a                SeVpn4DhcpFreeOptionList
                0x0000000040181483                SeVpn4DhcpParseOptionListMain
                0x0000000040181565                SeVpn4DhcpParseOptionList
                0x000000004018164f                SeVpn4DhcpServer
                0x00000000401818d4                SeVpn4RecvPacketPhysical
                0x000000004018197b                SeVpn4RecvPacketVirtual
                0x0000000040181b07                SeVpn4Init
                0x0000000040181b6e                SeVpn4Free
                0x0000000040181b94                SeVpn6ClientSetTimerCallback
                0x0000000040181ba2                SeVpn6ClientSetRecvUdpCallback
                0x0000000040181bb0                SeVpn6ClientSetRecvEspCallback
                0x0000000040181bbe                SeVpn6ClientSetRecvVirtualIpCallback
                0x0000000040181bcc                SeVpn6ClientSendUdp
                0x0000000040181c40                SeVpn6ClientSendEsp
                0x0000000040181ca5                SeVpn6ClientSendVirtualIp
                0x0000000040181cd8                SeVpn6IPsecSendPing
                0x0000000040181eab                SeVpn6UpdateGuestOsIpAddress
                0x0000000040181f61                SeVpn6IPsecInputFromPhysical
                0x0000000040182018                SeVpn6IPsecInputFromVirtual
                0x0000000040182050                SeVpn6InitSecConfig
                0x0000000040182219                SeVpn6InitIPsec
                0x00000000401822cf                SeVpn6FreeIPsec
                0x00000000401822e7                SeVpn6DoInterval
                0x0000000040182303                SeVpn6Tick
                0x000000004018231f                SeVpn6IPsecMainProc
                0x0000000040182399                SeVpn6MainProc
                0x00000000401823b8                SeVpn6ClientGetTick
                0x00000000401823d1                SeVpn6SetTimer
                0x00000000401823e8                SeVpn6ClientAddTimer
                0x0000000040182403                SeVpn6RecvPacketPhysical
                0x0000000040182470                SeVpn6RecvPacketVirtual
                0x0000000040182564                SeVpn6Init
                0x00000000401825dc                SeVpn6Free
                0x0000000040182602                crypt_sys_rsa_sign
                0x00000000401829e8                msg_usb_bulk_read
                0x0000000040182a52                msg_usb_bulk_write
                0x0000000040182abc                msg_usb_claim_interface
                0x0000000040182b0a                msg_usb_close
                0x0000000040182b67                msg_usb_control_msg
                0x0000000040182bee                msg_usb_find_busses
                0x0000000040182c2f                msg_usb_find_devices
                0x0000000040182c70                msg_usb_get_busses
                0x0000000040182ce3                msg_usb_get_string_simple
                0x0000000040182d48                msg_usb_init
                0x0000000040182d60                msg_usb_open
                0x0000000040182dda                msg_usb_release_interface
                0x0000000040182e28                msg_usb_reset
                0x0000000040182e6f                IDMan_StReadSetData
                0x00000000401832e1                idman_user_init
                0x0000000040183323                IDMan_IPIdPassListMalloc
                0x00000000401833fa                IDMan_IPRetJudgment
                0x0000000040183475                IDMan_IPInitializeReader
                0x00000000401834a5                IDMan_IPInitialize
                0x000000004018358c                IDMan_IPFinalize
                0x00000000401835d7                IDMan_IPFinalizeReader
                0x00000000401835fe                IDMan_getMemoryFree
                0x0000000040183638                IDMan_PaddingParamChk
                0x00000000401836ef                IDMan_CmPadding
                0x000000004018390e                IDMan_CmPadding2
                0x000000004018399e                IDMan_IPgetCertPKCS
                0x0000000040184013                IDMan_IPgetCertIdxPKCS
                0x00000000401844d0                IDMan_IPCheckPKC
                0x0000000040184707                IDMan_CheckCardStatus
                0x0000000040184734                IDMan_IPgSParamChk
                0x000000004018486a                IDMan_IPgIdxSParamChk
                0x0000000040184891                IDMan_IPgetPrivateKey
                0x0000000040184a48                IDMan_IPgetHash
                0x0000000040184b20                IDMan_IPCrSignature
                0x0000000040184c7a                IDMan_generateSignature
                0x0000000040184db2                IDMan_generateSignatureByIndex
                0x0000000040184ede                IDMan_EncryptByIndex
                0x0000000040185023                IDMan_IPgCParamChk
                0x0000000040185113                IDMan_getCertificate
                0x000000004018547c                IDMan_IPgCIndexParamChk
                0x00000000401854a1                IDMan_getCertificateByIndex
                0x00000000401857dd                IDMan_getStaticPassword
                0x0000000040185b3e                IDMan_IPuAPKCS11ParamChk
                0x0000000040185c46                IDMan_IPuAPKCS11IdxParamChk
                0x0000000040185c5a                IDMan_IPgetCertPkeyPKCSx
                0x00000000401860fa                IDMan_IPgetCertPkeyIdxPKCSx
                0x00000000401864f4                IDMan_IPgetCertPkeyPKCSy
                0x000000004018663a                IDMan_IPCheckCrlPkcX
                0x0000000040186766                IDMan_IPgetMakeRandData
                0x00000000401867d2                IDMan_IPMkRandHash
                0x0000000040186877                IDMan_IPgetPrivateKeyPKCSx
                0x0000000040186a27                IDMan_IPSignatureVerify
                0x0000000040186bac                IDMan_userAuthPKCS11
                0x0000000040187092                IDMan_userAuthPKCS11ByIndex
                0x000000004018757b                IDMan_IPvSParamChk
                0x00000000401876fb                IDMan_IPvSIdxParamChk
                0x000000004018774f                IDMan_IPMkPublicKeyObj
                0x000000004018788a                IDMan_IPCheckSignature
                0x0000000040187a69                IDMan_verifySignature
                0x0000000040187c5e                IDMan_verifySignatureByIndex
                0x0000000040187e46                CardEstablishContext
                0x0000000040187e61                CardReleaseContext
                0x0000000040187e88                CardListReaders
                0x0000000040187ea3                CardConnect
                0x0000000040187ee9                CardDisconnect
                0x0000000040187f09                CardStatus
                0x0000000040187f68                CardTransmit
                0x0000000040187fb3                SelectFileDF
                0x0000000040188081                SelectFileEF
                0x000000004018814a                Verify
                0x0000000040188235                InternalAuth
                0x00000000401883c0                ReadBinary
                0x000000004018856e                UpdateBinary
                0x0000000040188667                GetICCardData
                0x00000000401889d8                GetUlByTxt
                0x0000000040188a12                GetVerByTex
                0x0000000040188af9                GetUlByByte
                0x0000000040188b37                TransHex2Tex
                0x0000000040188bc0                TransTex2Hex
                0x0000000040188c5e                GetLength
                0x0000000040188cc1                SetLength
                0x0000000040188d20                GetTlvByBuf
                0x0000000040188fd0                GetDirDataByTlv
                0x00000000401890ba                GetOdfDataByTlv
                0x000000004018922e                GetTokenDataByTlv
                0x000000004018960e                AddObjTblByTlv
                0x0000000040189cf3                AddCertDataByBuf
                0x0000000040189df1                AddIdPassDataByBuf
                0x000000004018a17a                GetValueData
                0x000000004018a509                AddElem
                0x000000004018a58e                SetElem
                0x000000004018a63e                GetElem
                0x000000004018a679                GetAttrValType
                0x000000004018a781                DestroyAttribute
                0x000000004018a7c1                DestroyTlvData
                0x000000004018a7df                DestroyElem
                0x000000004018a854                DestroyList
                0x000000004018a896                DestroyTokenData
                0x000000004018a8ef                DestroySlotData
                0x000000004018a924                DestroySessionData
                0x000000004018a95b                DelElem
                0x000000004018a9c3                C_GetFunctionList
                0x000000004018a9d0                C_Initialize
                0x000000004018ab3b                C_Finalize
                0x000000004018abda                C_GetInfo
                0x000000004018ac5b                C_GetSlotList
                0x000000004018b529                C_GetSlotInfo
                0x000000004018b609                C_GetTokenInfo
                0x000000004018be63                C_GetMechanismList
                0x000000004018bf2d                C_GetMechanismInfo
                0x000000004018bfe1                C_OpenSession
                0x000000004018c15b                C_CloseSession
                0x000000004018c22e                C_CloseAllSessions
                0x000000004018c341                C_GetSessionInfo
                0x000000004018c3b5                C_Login
                0x000000004018c7e6                C_Logout
                0x000000004018c8a2                C_FindObjectsInit
                0x000000004018cb16                C_FindObjects
                0x000000004018d133                C_FindObjectsFinal
                0x000000004018d1b3                C_GetAttributeValue
                0x000000004018d511                C_SignInit
                0x000000004018d5d9                C_Sign
                0x000000004018d960                C_DigestInit
                0x000000004018d9d4                C_DigestUpdate
                0x000000004018da5b                C_DigestFinal
                0x000000004018dba8                C_VerifyInit
                0x000000004018dc70                C_Verify
                0x000000004018dde9                C_CreateObject
                0x000000004018e08b                C_DestroyObject
                0x000000004018e153                C_SetAttributeValue
                0x000000004018ecfc                C_GetCardStatus
                0x000000004018ed8c                IDMan_StFree
                0x000000004018eda0                IDMan_StMemcpy
                0x000000004018edc1                IDMan_StMemset
                0x000000004018eddc                IDMan_StMalloc
                0x000000004018ee16                IDMan_StMemcmp
                0x000000004018ee67                IDMan_StStrlen
                0x000000004018ee82                IDMan_StStrcat
                0x000000004018eebc                IDMan_StStrchr
                0x000000004018eee3                IDMan_StStrcpy
                0x000000004018ef0a                IDMan_StStrcmp
                0x000000004018ef3d                StIsspace
                0x000000004018ef99                StIsdigit
                0x000000004018efa6                IDMan_StAtoi
                0x000000004018eff9                IDMan_StAtol
                0x000000004018f057                IDMan_CmMkHash
                0x000000004018f1f6                IDMan_CmChgRSA
                0x000000004018f367                IDMan_CmGetDN
                0x000000004018f5ed                IDMan_CmGetCertificateSign
                0x000000004018f7f4                IDMan_CmGetPublicKey
                0x000000004018f9bf                IDMan_CmMakeRand
                0x000000004018fa51                IDMan_CmCheckCRL
                0x000000004018fdae                IDMan_SCardEstablishContext
                0x000000004018fdce                IDMan_SCardReleaseContext
                0x000000004018fddc                IDMan_SCardListReaders
                0x000000004018fe0a                IDMan_SCardConnect
                0x000000004018fe38                IDMan_SCardDisconnect
                0x000000004018fe46                IDMan_SCardStatus
                0x000000004018febf                IDMan_SCardSizeLongToChar
                0x000000004018fefe                IDMan_SCardSetBinay
                0x0000000040190223                IDMan_SCardTransmit
                0x0000000040190292                EHDestroyEventHandler
                0x00000000401902f4                EHInitEventHandler
                0x00000000401903a4                EHStatusHandler
                0x0000000040190537                HPSearchHotPluggables
                0x0000000040190856                PHGetProtocol
                0x0000000040190ee7                PHSetProtocol
                0x0000000040190f46                RFAddReader
                0x0000000040191056                RFRemoveReader
                0x0000000040191119                RFReaderInfoById
                0x0000000040191146                RFCheckReaderEventState
                0x0000000040191176                SCardEstablishContext
                0x000000004019125a                SCardListReaders
                0x00000000401912ee                SCardConnect
                0x0000000040191584                SCardDisconnect
                0x0000000040191746                SCardBeginTransaction
                0x000000004019179b                SCardEndTransaction
                0x0000000040191966                SCardStatus
                0x0000000040191b7d                SCardReleaseContext
                0x0000000040191c4a                SCardTransmit
                0x0000000040191e84                SetATR
                0x0000000040192166                GetIFSCData
                0x00000000401921b7                GetBWICWIData
                0x0000000040192234                IFDHCloseChannel
                0x0000000040192290                IFDHGetCapabilities
                0x00000000401922c8                IFDHSetProtocolParameters
                0x0000000040192b43                IFDHPowerICC
                0x0000000040192cb5                IFDHTransmitToICC
                0x0000000040192f20                IFDHControl
                0x0000000040193004                IFDHICCPresence
                0x0000000040193084                IFDHCreateChannel
                0x00000000401930fd                FindBaudRateTable
                0x0000000040193137                ExchangePPSData
                0x0000000040193906                InitLeaderCardProtocol
                0x0000000040193a34                T1XfrBlockTPDU
                0x0000000040194115                T1NegociateIFSD
                0x000000004019426a                CardStateConfirm
                0x000000004019429a                GetCardStatus
                0x000000004019439c                PowerOn
                0x0000000040194517                PowerOff
                0x0000000040194677                CardMechanical
                0x0000000040194779                TransmitPPS
                0x00000000401948b8                TransmitCommand
                0x0000000040194956                ReceiveReply
                0x0000000040194ae7                ReadDataT0
                0x0000000040194ba0                BlockSendCardT1
                0x0000000040194de7                T0XfrBlockCHAR
                0x000000004019535f                T0XfrBlockTPDU
                0x00000000401953d5                T1XfrBlockExtendedAPDU
                0x00000000401956ea                OpenUSB
                0x0000000040195ab2                WriteUSB
                0x0000000040195ad6                ReadUSB
                0x0000000040195b23                CloseUSB
                0x0000000040195cb3                net_register
                0x0000000040195d1d                net_new_nic
                0x0000000040195dd8                net_init
                0x0000000040195e0b                net_start
                0x0000000040195e55                net_premap_recvbuf
                0x0000000040195e76                lwip_htons
                0x0000000040195e7d                lwip_ntohs
                0x0000000040195e84                lwip_htonl
                0x0000000040195ea9                lwip_ntohl
                0x000000004019723f                dhcp_set_struct
                0x00000000401972e7                dhcp_cleanup
                0x0000000040197326                dhcp_inform
                0x000000004019744b                dhcp_network_changed
                0x000000004019749c                dhcp_renew
                0x0000000040197567                dhcp_coarse_tmr
                0x00000000401975eb                dhcp_release
                0x00000000401976f8                dhcp_fine_tmr
                0x00000000401977d4                dhcp_stop
                0x000000004019784f                dhcp_start
                0x00000000401980fe                dns_setserver
                0x0000000040198128                dns_init
                0x00000000401981a3                dns_getserver
                0x00000000401981bd                dns_tmr
                0x00000000401981f9                dns_gethostbyname
                0x000000004019840a                lwip_init
                0x0000000040198436                mem_init
                0x0000000040198488                mem_free
                0x0000000040198632                mem_trim
                0x0000000040198761                mem_malloc
                0x00000000401988df                mem_calloc
                0x0000000040198912                memp_init
                0x0000000040198997                memp_malloc
                0x0000000040198a01                memp_free
                0x0000000040198a44                netif_init
                0x0000000040198a45                netif_find
                0x0000000040198a85                netif_set_ipaddr
                0x0000000040198b07                netif_set_addr
                0x0000000040198b3f                netif_add
                0x0000000040198beb                netif_set_gw
                0x0000000040198bfb                netif_set_netmask
                0x0000000040198c0b                netif_set_default
                0x0000000040198c13                netif_set_up
                0x0000000040198c3d                netif_set_down
                0x0000000040198c60                netif_remove
                0x0000000040198cbf                netif_set_link_up
                0x0000000040198d08                netif_set_link_down
                0x0000000040198d17                pbuf_free_ooseq
                0x0000000040198d54                pbuf_alloced_custom
                0x0000000040198deb                pbuf_header
                0x0000000040198ed2                pbuf_free
                0x0000000040198fd0                pbuf_alloc
                0x00000000401992be                pbuf_realloc
                0x00000000401993f3                pbuf_clen
                0x000000004019940f                pbuf_ref
                0x000000004019941a                pbuf_cat
                0x00000000401994a1                pbuf_chain
                0x00000000401994b4                pbuf_dechain
                0x000000004019955f                pbuf_copy
                0x0000000040199765                pbuf_copy_partial
                0x0000000040199847                pbuf_take
                0x000000004019995b                pbuf_coalesce
                0x00000000401999c4                pbuf_get_at
                0x00000000401999f4                pbuf_memcmp
                0x0000000040199a75                pbuf_memfind
                0x0000000040199ae3                pbuf_strstr
                0x0000000040199b41                raw_input
                0x0000000040199be1                raw_bind
                0x0000000040199bf5                raw_connect
                0x0000000040199c0a                raw_recv
                0x0000000040199c13                raw_sendto
                0x0000000040199d33                raw_send
                0x0000000040199d45                raw_remove
                0x0000000040199d9a                raw_new
                0x0000000040199e68                tcp_init
                0x0000000040199e69                tcp_bind
                0x0000000040199f38                tcp_listen_with_backlog
                0x000000004019a065                tcp_update_rcv_ann_wnd
                0x000000004019a0df                tcp_recved
                0x000000004019a168                tcp_seg_free
                0x000000004019a18f                tcp_segs_free
                0x000000004019a1aa                tcp_setprio
                0x000000004019a1af                tcp_seg_copy
                0x000000004019a1f8                tcp_arg
                0x000000004019a1fd                tcp_recv
                0x000000004019a22d                tcp_sent
                0x000000004019a25d                tcp_err
                0x000000004019a28d                tcp_accept
                0x000000004019a292                tcp_poll
                0x000000004019a2c5                tcp_pcb_purge
                0x000000004019a348                tcp_slowtmr
                0x000000004019a902                tcp_pcb_remove
                0x000000004019ac8a                tcp_close
                0x000000004019aca7                tcp_recv_null
                0x000000004019acdb                tcp_process_refused_data
                0x000000004019ad98                tcp_fasttmr
                0x000000004019ae0e                tcp_tmr
                0x000000004019ae37                tcp_shutdown
                0x000000004019aec1                tcp_abandon
                0x000000004019afce                tcp_abort
                0x000000004019afe1                tcp_next_iss
                0x000000004019aff4                tcp_alloc
                0x000000004019b194                tcp_new
                0x000000004019b1a7                tcp_eff_send_mss
                0x000000004019b1db                tcp_connect
                0x000000004019b391                tcp_debug_state_str
                0x000000004019c372                tcp_input
                0x000000004019d3f5                tcp_write
                0x000000004019dbeb                tcp_enqueue_flags
                0x000000004019dde3                tcp_send_fin
                0x000000004019de4e                tcp_send_empty_ack
                0x000000004019dee4                tcp_output
                0x000000004019e31e                tcp_rst
                0x000000004019e431                tcp_rexmit_rto
                0x000000004019e485                tcp_rexmit
                0x000000004019e51c                tcp_rexmit_fast
                0x000000004019e577                tcp_keepalive
                0x000000004019e601                tcp_zero_window_probe
                0x000000004019e72e                udp_init
                0x000000004019e72f                udp_input
                0x000000004019e9fa                udp_bind
                0x000000004019eb31                udp_sendto_if
                0x000000004019ecd8                udp_sendto
                0x000000004019ed20                udp_send
                0x000000004019ed36                udp_connect
                0x000000004019edbb                udp_disconnect
                0x000000004019edcd                udp_recv
                0x000000004019edd6                udp_remove
                0x000000004019ee2b                udp_new
                0x000000004019ee7a                sys_timeout
                0x000000004019ef2c                tcp_timer_needed
                0x000000004019efb3                sys_timeouts_init
                0x000000004019f10b                sys_untimeout
                0x000000004019f175                sys_check_timeouts
                0x000000004019f206                sys_restart_timeouts
                0x000000004019f2a8                autoip_set_struct
                0x000000004019f32e                autoip_start
                0x000000004019f449                autoip_network_changed
                0x000000004019f46e                autoip_stop
                0x000000004019f489                autoip_tmr
                0x000000004019f632                autoip_arp_reply
                0x000000004019f781                inet_chksum_pseudo
                0x000000004019f873                inet_chksum_pseudo_partial
                0x000000004019f9ba                inet_chksum
                0x000000004019f9c5                inet_chksum_pbuf
                0x000000004019fa64                ip_route
                0x000000004019faa4                ip_input
                0x000000004019fd50                ip_output_if
                0x000000004019fef3                ip_output
                0x00000000401a007b                icmp_input
                0x00000000401a0326                icmp_dest_unreach
                0x00000000401a033d                icmp_time_exceeded
                0x00000000401a0354                ip4_addr_isbroadcast
                0x00000000401a0389                ip4_addr_netmask_valid
                0x00000000401a03d3                ipaddr_aton
                0x00000000401a05de                ipaddr_addr
                0x00000000401a05fd                ipaddr_ntoa_r
                0x00000000401a06e8                ipaddr_ntoa
                0x00000000401a09d0                ip_reass_tmr
                0x00000000401a0a1a                ip_reass
                0x00000000401a0e64                ip_frag
                0x00000000401a1374                etharp_tmr
                0x00000000401a13cd                etharp_cleanup_netif
                0x00000000401a1410                etharp_find_addr
                0x00000000401a1498                etharp_raw
                0x00000000401a1615                etharp_request
                0x00000000401a16e9                etharp_query
                0x00000000401a18f2                etharp_output
                0x00000000401a1ac2                ethernet_input
                0x00000000401a1dc5                ip_sys_now
                0x00000000401a1df3                sys_now
                0x00000000401a1ef0                ip_main_input
                0x00000000401a20b0                tcpip_begin
                0x00000000401a20be                ip_main_init
                0x00000000401a22d4                ip_main_task
                0x00000000401a266e                net_main_task_add
                0x00000000401a276f                net_main_send
                0x00000000401a27a4                net_main_poll
                0x00000000401a27c1                net_main_get_mac_address
                0x00000000401a27f8                net_main_set_recv_arg
                0x00000000401a2b86                echo_server_init
                0x00000000401a2cba                echo_client_send
                0x00000000401a2d13                echo_client_init
                0x00000000401a2ef7                AES_set_encrypt_key
                0x00000000401a3330                AES_set_decrypt_key
                0x00000000401a3552                AES_encrypt
                0x00000000401a39e1                AES_decrypt
                0x00000000401a3e44                BIO_set
                0x00000000401a3efe                BIO_new
                0x00000000401a3f6c                BIO_free
                0x00000000401a4019                BIO_vfree
                0x00000000401a4027                BIO_clear_flags
                0x00000000401a402d                BIO_test_flags
                0x00000000401a4033                BIO_set_flags
                0x00000000401a4037                BIO_get_callback
                0x00000000401a403c                BIO_set_callback
                0x00000000401a4041                BIO_set_callback_arg
                0x00000000401a4046                BIO_get_callback_arg
                0x00000000401a404b                BIO_method_name
                0x00000000401a4053                BIO_method_type
                0x00000000401a4059                BIO_read
                0x00000000401a4140                BIO_write
                0x00000000401a422d                BIO_puts
                0x00000000401a4307                BIO_gets
                0x00000000401a43f3                BIO_indent
                0x00000000401a4439                BIO_ctrl
                0x00000000401a44ec                BIO_int_ctrl
                0x00000000401a4503                BIO_ptr_ctrl
                0x00000000401a452d                BIO_callback_ctrl
                0x00000000401a45f2                BIO_ctrl_pending
                0x00000000401a460f                BIO_ctrl_wpending
                0x00000000401a462c                BIO_push
                0x00000000401a466c                BIO_pop
                0x00000000401a46d1                BIO_get_retry_BIO
                0x00000000401a46f9                BIO_get_retry_reason
                0x00000000401a46fd                BIO_find_type
                0x00000000401a472c                BIO_next
                0x00000000401a473a                BIO_free_all
                0x00000000401a4766                BIO_dup_chain
                0x00000000401a4853                BIO_copy_next_retry
                0x00000000401a4867                BIO_get_ex_new_index
                0x00000000401a4889                BIO_set_ex_data
                0x00000000401a489b                BIO_get_ex_data
                0x00000000401a48ad                BIO_number_read
                0x00000000401a48bc                BIO_number_written
                0x00000000401a4a22                BN_set_params
                0x00000000401a4a77                BN_get_params
                0x00000000401a4aaa                BN_value_one
                0x00000000401a4ab0                BN_options
                0x00000000401a4afb                BN_num_bits_word
                0x00000000401a4b51                BN_num_bits
                0x00000000401a4b76                BN_clear_free
                0x00000000401a4bd2                BN_free
                0x00000000401a4c11                BN_init
                0x00000000401a4c29                BN_new
                0x00000000401a4c8f                bn_expand2
                0x00000000401a4ccc                BN_copy
                0x00000000401a4d92                BN_dup
                0x00000000401a4ddc                bn_dup_expand
                0x00000000401a4e43                BN_swap
                0x00000000401a4ea1                BN_clear
                0x00000000401a4ed1                BN_get_word
                0x00000000401a4eed                BN_set_word
                0x00000000401a4f37                BN_bin2bn
                0x00000000401a5050                BN_bn2bin
                0x00000000401a50ad                BN_ucmp
                0x00000000401a50ee                BN_cmp
                0x00000000401a517a                BN_set_bit
                0x00000000401a522e                BN_clear_bit
                0x00000000401a5296                BN_is_bit_set
                0x00000000401a52cd                BN_mask_bits
                0x00000000401a5349                BN_set_negative
                0x00000000401a535d                bn_cmp_words
                0x00000000401a53ac                bn_cmp_part_words
                0x00000000401a541e                BN_bn2hex
                0x00000000401a5514                BN_bn2dec
                0x00000000401a5724                BN_hex2bn
                0x00000000401a591d                BN_dec2bn
                0x00000000401a5ace                BN_asc2bn
                0x00000000401a5b36                BN_print
                0x00000000401a5dfd                BN_rand
                0x00000000401a5e1a                BN_pseudo_rand
                0x00000000401a6002                BN_bntest_rand
                0x00000000401a601f                BN_rand_range
                0x00000000401a6038                BN_pseudo_rand_range
                0x00000000401a6051                BN_mod_word
                0x00000000401a60ac                BN_div_word
                0x00000000401a619d                BN_sub_word
                0x00000000401a628f                BN_add_word
                0x00000000401a6373                BN_mul_word
                0x00000000401a678b                BIO_s_mem
                0x00000000401a6791                BIO_new_mem_buf
                0x00000000401a6806                BUF_MEM_new
                0x00000000401a6860                BUF_MEM_free
                0x00000000401a6893                BUF_MEM_grow
                0x00000000401a69b8                BUF_MEM_grow_clean
                0x00000000401a6af9                BUF_memdup
                0x00000000401a6b61                BUF_strlcpy
                0x00000000401a6bb7                BUF_strndup
                0x00000000401a6c1d                BUF_strdup
                0x00000000401a6c3c                BUF_strlcat
                0x00000000401a6c79                BUF_reverse
                0x00000000401a6cd6                OpenSSL_add_all_ciphers
                0x00000000401a7176                OpenSSL_add_all_digests
                0x00000000401a72dc                CRYPTO_get_new_lockid
                0x00000000401a7387                CRYPTO_num_locks
                0x00000000401a738d                CRYPTO_get_dynlock_create_callback
                0x00000000401a7395                CRYPTO_get_dynlock_lock_callback
                0x00000000401a739d                CRYPTO_get_dynlock_destroy_callback
                0x00000000401a73a5                CRYPTO_set_dynlock_create_callback
                0x00000000401a73ad                CRYPTO_set_dynlock_lock_callback
                0x00000000401a73b5                CRYPTO_set_dynlock_destroy_callback
                0x00000000401a73bd                CRYPTO_get_locking_callback
                0x00000000401a73c5                CRYPTO_get_add_lock_callback
                0x00000000401a73cd                CRYPTO_set_locking_callback
                0x00000000401a73d5                CRYPTO_set_add_lock_callback
                0x00000000401a73dd                CRYPTO_THREADID_set_numeric
                0x00000000401a7403                CRYPTO_THREADID_set_pointer
                0x00000000401a742c                CRYPTO_THREADID_set_callback
                0x00000000401a744a                CRYPTO_THREADID_get_callback
                0x00000000401a7452                CRYPTO_THREADID_current
                0x00000000401a748d                CRYPTO_THREADID_cmp
                0x00000000401a74a0                CRYPTO_THREADID_cpy
                0x00000000401a74b3                CRYPTO_THREADID_hash
                0x00000000401a74b8                CRYPTO_get_id_callback
                0x00000000401a74c0                CRYPTO_set_id_callback
                0x00000000401a74c8                CRYPTO_thread_id
                0x00000000401a74e5                CRYPTO_get_lock_name
                0x00000000401a752d                OPENSSL_ia32cap_loc
                0x00000000401a7533                OPENSSL_cpuid_setup
                0x00000000401a7534                OPENSSL_showfatal
                0x00000000401a7589                OPENSSL_isservice
                0x00000000401a758f                OpenSSLDie
                0x00000000401a75b4                CRYPTO_lock
                0x00000000401a762a                CRYPTO_get_new_dynlockid
                0x00000000401a785a                CRYPTO_destroy_dynlockid
                0x00000000401a794d                CRYPTO_get_dynlock_value
                0x00000000401a79df                CRYPTO_add_lock
                0x00000000401a7a3b                OPENSSL_stderr
                0x00000000401a7a41                CRYPTO_memcmp
                0x00000000401a7a74                DES_encrypt1
                0x00000000401a7e74                DES_encrypt2
                0x00000000401a8167                DES_encrypt3
                0x00000000401a82cb                DES_decrypt3
                0x00000000401a8432                DES_ncbc_encrypt
                0x00000000401a8a7d                DES_ede3_cbc_encrypt
                0x00000000401a952f                DH_generate_key
                0x00000000401a9542                DH_compute_key
                0x00000000401a9555                DH_OpenSSL
                0x00000000401a955b                DH_set_default_method
                0x00000000401a9563                DH_get_default_method
                0x00000000401a9591                DH_set_method
                0x00000000401a95d0                DH_new_method
                0x00000000401a96ea                DH_new
                0x00000000401a96fd                DH_free
                0x00000000401a97d1                DH_up_ref
                0x00000000401a9801                DH_get_ex_new_index
                0x00000000401a9823                DH_set_ex_data
                0x00000000401a9835                DH_get_ex_data
                0x00000000401a9847                DH_size
                0x00000000401aa4d9                EVP_aes_128_cbc
                0x00000000401aa4df                EVP_aes_128_cfb128
                0x00000000401aa4e5                EVP_aes_128_ofb
                0x00000000401aa4eb                EVP_aes_128_ecb
                0x00000000401aa4f1                EVP_aes_192_cbc
                0x00000000401aa4f7                EVP_aes_192_cfb128
                0x00000000401aa4fd                EVP_aes_192_ofb
                0x00000000401aa503                EVP_aes_192_ecb
                0x00000000401aa509                EVP_aes_256_cbc
                0x00000000401aa50f                EVP_aes_256_cfb128
                0x00000000401aa515                EVP_aes_256_ofb
                0x00000000401aa51b                EVP_aes_256_ecb
                0x00000000401aa521                EVP_aes_128_cfb1
                0x00000000401aa527                EVP_aes_192_cfb1
                0x00000000401aa52d                EVP_aes_256_cfb1
                0x00000000401aa533                EVP_aes_128_cfb8
                0x00000000401aa539                EVP_aes_192_cfb8
                0x00000000401aa53f                EVP_aes_256_cfb8
                0x00000000401aa82c                EVP_bf_cbc
                0x00000000401aa832                EVP_bf_cfb64
                0x00000000401aa838                EVP_bf_ofb
                0x00000000401aa83e                EVP_bf_ecb
                0x00000000401aab2b                EVP_cast5_cbc
                0x00000000401aab31                EVP_cast5_cfb64
                0x00000000401aab37                EVP_cast5_ofb
                0x00000000401aab3d                EVP_cast5_ecb
                0x00000000401ab0e9                EVP_des_cbc
                0x00000000401ab0ef                EVP_des_cfb64
                0x00000000401ab0f5                EVP_des_ofb
                0x00000000401ab0fb                EVP_des_ecb
                0x00000000401ab101                EVP_des_cfb1
                0x00000000401ab107                EVP_des_cfb8
                0x00000000401ab77a                EVP_des_ede_cbc
                0x00000000401ab780                EVP_des_ede_cfb64
                0x00000000401ab786                EVP_des_ede_ofb
                0x00000000401ab78c                EVP_des_ede_ecb
                0x00000000401ab792                EVP_des_ede3_cbc
                0x00000000401ab798                EVP_des_ede3_cfb64
                0x00000000401ab79e                EVP_des_ede3_ofb
                0x00000000401ab7a4                EVP_des_ede3_ecb
                0x00000000401ab7aa                EVP_des_ede3_cfb1
                0x00000000401ab7b0                EVP_des_ede3_cfb8
                0x00000000401ab7b6                EVP_des_ede
                0x00000000401ab7bc                EVP_des_ede3
                0x00000000401abaf9                EVP_idea_cbc
                0x00000000401abaff                EVP_idea_cfb64
                0x00000000401abb05                EVP_idea_ofb
                0x00000000401abb0b                EVP_idea_ecb
                0x00000000401ac009                EVP_rc2_cbc
                0x00000000401ac00f                EVP_rc2_cfb64
                0x00000000401ac015                EVP_rc2_ofb
                0x00000000401ac01b                EVP_rc2_ecb
                0x00000000401ac021                EVP_rc2_64_cbc
                0x00000000401ac027                EVP_rc2_40_cbc
                0x00000000401ac078                EVP_rc4
                0x00000000401ac07e                EVP_rc4_40
                0x00000000401ac1e6                EVP_desx_cbc
                0x00000000401ac1ec                DES_ecb3_encrypt
                0x00000000401ac2ba                DES_options
                0x00000000401ac310                DES_ecb_encrypt
                0x00000000401aca3a                ERR_get_implementation
                0x00000000401aca4f                ERR_set_implementation
                0x00000000401acab0                ERR_load_ERR_strings
                0x00000000401acbde                ERR_load_strings
                0x00000000401acbff                ERR_unload_strings
                0x00000000401acc45                ERR_free_strings
                0x00000000401acc5d                ERR_get_string_table
                0x00000000401acc79                ERR_get_err_state_table
                0x00000000401acc96                ERR_release_err_state_table
                0x00000000401accae                ERR_lib_error_string
                0x00000000401acce5                ERR_func_error_string
                0x00000000401acd27                ERR_reason_error_string
                0x00000000401acd84                ERR_error_string_n
                0x00000000401acf0d                ERR_error_string
                0x00000000401acf2f                ERR_remove_thread_state
                0x00000000401acf6a                ERR_remove_state
                0x00000000401acf7d                ERR_get_state
                0x00000000401ad07d                ERR_put_error
                0x00000000401ad176                ERR_clear_error
                0x00000000401ad3ec                ERR_get_error
                0x00000000401ad41a                ERR_get_error_line
                0x00000000401ad444                ERR_get_error_line_data
                0x00000000401ad468                ERR_peek_error
                0x00000000401ad496                ERR_peek_error_line
                0x00000000401ad4c0                ERR_peek_error_line_data
                0x00000000401ad4e4                ERR_peek_last_error
                0x00000000401ad512                ERR_peek_last_error_line
                0x00000000401ad53c                ERR_peek_last_error_line_data
                0x00000000401ad560                ERR_get_next_error_library
                0x00000000401ad578                ERR_set_error_data
                0x00000000401ad5df                ERR_add_error_data
                0x00000000401ad70c                ERR_set_mark
                0x00000000401ad73c                ERR_pop_to_mark
                0x00000000401ad7fe                ERR_load_crypto_strings
                0x00000000401ad88e                ASN1_TYPE_set_octetstring
                0x00000000401ad8ec                ASN1_TYPE_get_octetstring
                0x00000000401ad93b                ASN1_TYPE_set_int_octetstring
                0x00000000401ada66                ASN1_TYPE_get_int_octetstring
                0x00000000401adc2c                EVP_CIPHER_CTX_init
                0x00000000401adc44                EVP_CIPHER_CTX_new
                0x00000000401adc6e                EVP_EncryptUpdate
                0x00000000401ade1e                EVP_EncryptFinal_ex
                0x00000000401adef7                EVP_EncryptFinal
                0x00000000401adf05                EVP_DecryptUpdate
                0x00000000401ae01f                EVP_CipherUpdate
                0x00000000401ae03a                EVP_DecryptFinal_ex
                0x00000000401ae1d7                EVP_CipherFinal_ex
                0x00000000401ae1f2                EVP_DecryptFinal
                0x00000000401ae200                EVP_CipherFinal
                0x00000000401ae21b                EVP_CIPHER_CTX_cleanup
                0x00000000401ae272                EVP_CIPHER_CTX_free
                0x00000000401ae28b                EVP_CIPHER_CTX_set_padding
                0x00000000401ae2a9                EVP_CIPHER_CTX_ctrl
                0x00000000401ae33c                EVP_CipherInit_ex
                0x00000000401ae597                EVP_CipherInit
                0x00000000401ae5da                EVP_EncryptInit
                0x00000000401ae5ee                EVP_DecryptInit
                0x00000000401ae602                EVP_EncryptInit_ex
                0x00000000401ae616                EVP_DecryptInit_ex
                0x00000000401ae62a                EVP_CIPHER_CTX_set_key_length
                0x00000000401ae68e                EVP_CIPHER_CTX_rand_key
                0x00000000401ae6c7                EVP_CIPHER_CTX_copy
                0x00000000401ae7ab                ERR_load_EVP_strings
                0x00000000401ae7e5                EVP_CIPHER_param_to_asn1
                0x00000000401ae802                EVP_CIPHER_asn1_to_param
                0x00000000401ae81f                EVP_CIPHER_get_asn1_iv
                0x00000000401ae897                EVP_CIPHER_set_asn1_iv
                0x00000000401ae8e3                EVP_CIPHER_type
                0x00000000401aea06                EVP_CIPHER_block_size
                0x00000000401aea0a                EVP_CIPHER_CTX_block_size
                0x00000000401aea11                EVP_Cipher
                0x00000000401aea22                EVP_CIPHER_CTX_cipher
                0x00000000401aea26                EVP_CIPHER_flags
                0x00000000401aea2b                EVP_CIPHER_CTX_flags
                0x00000000401aea33                EVP_CIPHER_CTX_get_app_data
                0x00000000401aea38                EVP_CIPHER_CTX_set_app_data
                0x00000000401aea3d                EVP_CIPHER_iv_length
                0x00000000401aea41                EVP_CIPHER_CTX_iv_length
                0x00000000401aea48                EVP_CIPHER_key_length
                0x00000000401aea4c                EVP_CIPHER_CTX_key_length
                0x00000000401aea50                EVP_CIPHER_nid
                0x00000000401aea53                EVP_CIPHER_CTX_nid
                0x00000000401aea59                EVP_MD_block_size
                0x00000000401aea5d                EVP_MD_type
                0x00000000401aea60                EVP_MD_pkey_type
                0x00000000401aea64                EVP_MD_size
                0x00000000401aea9a                EVP_MD_flags
                0x00000000401aea9f                EVP_MD_CTX_md
                0x00000000401aeaac                EVP_MD_CTX_set_flags
                0x00000000401aeab4                EVP_MD_CTX_clear_flags
                0x00000000401aeabe                EVP_MD_CTX_test_flags
                0x00000000401aeac4                EVP_CIPHER_CTX_set_flags
                0x00000000401aeacc                EVP_CIPHER_CTX_clear_flags
                0x00000000401aead6                EVP_CIPHER_CTX_test_flags
                0x00000000401aeead                CRYPTO_get_ex_data_implementation
                0x00000000401aeed4                CRYPTO_set_ex_data_implementation
                0x00000000401aef35                CRYPTO_ex_data_new_class
                0x00000000401aef58                CRYPTO_cleanup_all_ex_data
                0x00000000401aef7c                CRYPTO_get_ex_new_index
                0x00000000401aefd6                CRYPTO_new_ex_data
                0x00000000401af00a                CRYPTO_dup_ex_data
                0x00000000401af03e                CRYPTO_free_ex_data
                0x00000000401af072                CRYPTO_set_ex_data
                0x00000000401af129                CRYPTO_get_ex_data
                0x00000000401af5e9                idea_encrypt
                0x00000000401affba                idea_cbc_encrypt
                0x00000000401b05d5                idea_cfb64_encrypt
                0x00000000401b0805                idea_options
                0x00000000401b080b                idea_ecb_encrypt
                0x00000000401b08c6                idea_ofb64_encrypt
                0x00000000401b0b12                idea_set_encrypt_key
                0x00000000401b0c85                idea_set_decrypt_key
                0x00000000401b0e10                lh_strhash
                0x00000000401b0e82                lh_new
                0x00000000401b0fe1                lh_free
                0x00000000401b103d                lh_insert
                0x00000000401b11fc                lh_delete
                0x00000000401b1323                lh_retrieve
                0x00000000401b1362                lh_doall
                0x00000000401b13b7                lh_doall_arg
                0x00000000401b141e                lh_num_items
                0x00000000401b1469                EVP_dss
                0x00000000401b14ab                EVP_dss1
                0x00000000401b14ed                EVP_ecdsa
                0x00000000401b152f                EVP_md4
                0x00000000401b1571                EVP_md5
                0x00000000401b15b3                EVP_ripemd160
                0x00000000401b15f5                EVP_sha
                0x00000000401b16d3                EVP_sha1
                0x00000000401b16d9                EVP_sha224
                0x00000000401b16df                EVP_sha256
                0x00000000401b16e5                EVP_sha384
                0x00000000401b16eb                EVP_sha512
                0x00000000401b16f1                MD4_Init
                0x00000000401b1726                md4_block_data_order
                0x00000000401b1cdc                MD4_Update
                0x00000000401b1e0c                MD4_Transform
                0x00000000401b1e17                MD4_Final
                0x00000000401b1ed1                MD5_Init
                0x00000000401b1f06                md5_block_data_order
                0x00000000401b25e8                MD5_Update
                0x00000000401b2718                MD5_Transform
                0x00000000401b2723                MD5_Final
                0x00000000401b27dd                MD5
                0x00000000401b2874                CRYPTO_set_mem_functions
                0x00000000401b28e3                CRYPTO_set_mem_ex_functions
                0x00000000401b2952                CRYPTO_set_locked_mem_functions
                0x00000000401b298b                CRYPTO_set_locked_mem_ex_functions
                0x00000000401b29c4                CRYPTO_set_mem_debug_functions
                0x00000000401b29f7                CRYPTO_get_mem_functions
                0x00000000401b2a47                CRYPTO_get_mem_ex_functions
                0x00000000401b2a93                CRYPTO_get_locked_mem_functions
                0x00000000401b2ac3                CRYPTO_get_locked_mem_ex_functions
                0x00000000401b2af1                CRYPTO_get_mem_debug_functions
                0x00000000401b2b3d                CRYPTO_malloc_locked
                0x00000000401b2be8                CRYPTO_free_locked
                0x00000000401b2c22                CRYPTO_malloc
                0x00000000401b2ccd                CRYPTO_strdup
                0x00000000401b2d03                CRYPTO_realloc
                0x00000000401b2d9c                CRYPTO_realloc_clean
                0x00000000401b2e71                CRYPTO_free
                0x00000000401b2eab                CRYPTO_remalloc
                0x00000000401b2ecb                CRYPTO_set_mem_debug_options
                0x00000000401b2ee3                CRYPTO_get_mem_debug_options
                0x00000000401b2f00                OPENSSL_cleanse
                0x00000000401b3339                CRYPTO_mem_ctrl
                0x00000000401b34b4                CRYPTO_is_mem_check_on
                0x00000000401b3528                CRYPTO_dbg_set_options
                0x00000000401b3530                CRYPTO_dbg_get_options
                0x00000000401b3538                CRYPTO_push_info_
                0x00000000401b3603                CRYPTO_pop_info
                0x00000000401b3637                CRYPTO_remove_all_info
                0x00000000401b3671                CRYPTO_dbg_malloc
                0x00000000401b3803                CRYPTO_dbg_free
                0x00000000401b3878                CRYPTO_dbg_realloc
                0x00000000401b3910                CRYPTO_mem_leaks
                0x00000000401b3a30                CRYPTO_mem_leaks_cb
                0x00000000401b3b04                EVP_add_cipher
                0x00000000401b3b45                EVP_add_digest
                0x00000000401b3bdb                EVP_get_cipherbyname
                0x00000000401b3bee                EVP_get_digestbyname
                0x00000000401b3c01                EVP_cleanup
                0x00000000401b3c4c                EVP_CIPHER_do_all
                0x00000000401b3c70                EVP_CIPHER_do_all_sorted
                0x00000000401b3c94                EVP_MD_do_all
                0x00000000401b3cb8                EVP_MD_do_all_sorted
                0x00000000401b3dd8                OBJ_NAME_init
                0x00000000401b3e29                OBJ_NAME_new_index
                0x00000000401b3f83                OBJ_NAME_get
                0x00000000401b401e                OBJ_NAME_add
                0x00000000401b40e5                OBJ_NAME_remove
                0x00000000401b4195                OBJ_NAME_do_all
                0x00000000401b41c2                OBJ_NAME_do_all_sorted
                0x00000000401b4262                OBJ_NAME_cleanup
                0x00000000401b4505                check_defer
                0x00000000401b4523                OBJ_cleanup
                0x00000000401b4598                OBJ_new_nid
                0x00000000401b45a7                OBJ_add_object
                0x00000000401b4763                OBJ_nid2obj
                0x00000000401b4824                OBJ_nid2sn
                0x00000000401b48e8                OBJ_nid2ln
                0x00000000401b49ad                OBJ_bsearch_ex_
                0x00000000401b4ab2                OBJ_bsearch_
                0x00000000401b4ac6                OBJ_obj2nid
                0x00000000401b4b50                OBJ_obj2txt
                0x00000000401b4f16                OBJ_ln2nid
                0x00000000401b4f94                OBJ_sn2nid
                0x00000000401b5012                OBJ_txt2obj
                0x00000000401b5107                OBJ_txt2nid
                0x00000000401b5135                OBJ_create
                0x00000000401b521e                OBJ_create_objects
                0x00000000401b535c                ERR_load_OBJ_strings
                0x00000000401b5396                OBJ_dup
                0x00000000401b554e                OBJ_cmp
                0x00000000401b556f                ERR_load_OCSP_strings
                0x00000000401b55a9                DES_ede3_ofb64_encrypt
                0x00000000401b57ab                DES_ofb64_encrypt
                0x00000000401b5abb                EVP_PKEY_bits
                0x00000000401b5ae3                EVP_PKEY_size
                0x00000000401b5b0b                EVP_PKEY_save_parameters
                0x00000000401b5b39                EVP_PKEY_missing_parameters
                0x00000000401b5b5c                EVP_PKEY_copy_parameters
                0x00000000401b5bea                EVP_PKEY_cmp_parameters
                0x00000000401b5c22                EVP_PKEY_cmp
                0x00000000401b5c7f                EVP_PKEY_new
                0x00000000401b5cfd                EVP_PKEY_set_type
                0x00000000401b5d15                EVP_PKEY_set_type_str
                0x00000000401b5d2d                EVP_PKEY_assign
                0x00000000401b5d56                EVP_PKEY_get0
                0x00000000401b5d5b                EVP_PKEY_set1_RSA
                0x00000000401b5d8a                EVP_PKEY_get1_RSA
                0x00000000401b5dc8                EVP_PKEY_set1_DSA
                0x00000000401b5df7                EVP_PKEY_get1_DSA
                0x00000000401b5e35                EVP_PKEY_set1_EC_KEY
                0x00000000401b5e64                EVP_PKEY_get1_EC_KEY
                0x00000000401b5ea5                EVP_PKEY_set1_DH
                0x00000000401b5ed4                EVP_PKEY_get1_DH
                0x00000000401b5f12                EVP_PKEY_type
                0x00000000401b5f35                EVP_PKEY_id
                0x00000000401b5f38                EVP_PKEY_base_id
                0x00000000401b5f48                EVP_PKEY_free
                0x00000000401b5f9b                EVP_PKEY_print_public
                0x00000000401b5fc4                EVP_PKEY_print_private
                0x00000000401b5fed                EVP_PKEY_print_params
                0x00000000401b6019                EVP_PKEY_get_default_digest_nid
                0x00000000401b6052                PEM_read_bio_X509_REQ
                0x00000000401b6076                PEM_write_bio_X509_REQ
                0x00000000401b60a6                PEM_write_bio_X509_REQ_NEW
                0x00000000401b60d6                PEM_read_bio_X509_CRL
                0x00000000401b60fa                PEM_write_bio_X509_CRL
                0x00000000401b612a                PEM_read_bio_PKCS7
                0x00000000401b614e                PEM_write_bio_PKCS7
                0x00000000401b617e                PEM_read_bio_NETSCAPE_CERT_SEQUENCE
                0x00000000401b61a2                PEM_write_bio_NETSCAPE_CERT_SEQUENCE
                0x00000000401b61d2                PEM_read_bio_RSAPrivateKey
                0x00000000401b6222                PEM_write_bio_RSAPrivateKey
                0x00000000401b624e                PEM_read_bio_RSAPublicKey
                0x00000000401b6272                PEM_write_bio_RSAPublicKey
                0x00000000401b62a2                PEM_read_bio_RSA_PUBKEY
                0x00000000401b62c6                PEM_write_bio_RSA_PUBKEY
                0x00000000401b62f6                PEM_read_bio_DSAPrivateKey
                0x00000000401b6346                PEM_write_bio_DSAPrivateKey
                0x00000000401b6372                PEM_read_bio_DSA_PUBKEY
                0x00000000401b6396                PEM_write_bio_DSA_PUBKEY
                0x00000000401b63c6                PEM_read_bio_DSAparams
                0x00000000401b63ea                PEM_write_bio_DSAparams
                0x00000000401b641a                PEM_read_bio_ECPrivateKey
                0x00000000401b646a                PEM_read_bio_ECPKParameters
                0x00000000401b648e                PEM_write_bio_ECPKParameters
                0x00000000401b64be                PEM_write_bio_ECPrivateKey
                0x00000000401b64ea                PEM_read_bio_EC_PUBKEY
                0x00000000401b650e                PEM_write_bio_EC_PUBKEY
                0x00000000401b653e                PEM_read_bio_DHparams
                0x00000000401b6562                PEM_write_bio_DHparams
                0x00000000401b6592                PEM_read_bio_PUBKEY
                0x00000000401b65b6                PEM_write_bio_PUBKEY
                0x00000000401b65e6                ERR_load_PEM_strings
                0x00000000401b6620                PEM_def_callback
                0x00000000401b664d                PEM_proc_type
                0x00000000401b66b6                PEM_dek_info
                0x00000000401b677e                PEM_do_header
                0x00000000401b6952                PEM_get_EVP_CIPHER_INFO
                0x00000000401b6bec                PEM_write_bio
                0x00000000401b6e93                PEM_ASN1_write_bio
                0x00000000401b72ac                PEM_read_bio
                0x00000000401b790c                pem_check_suffix
                0x00000000401b7969                PEM_bytes_read_bio
                0x00000000401b7cf3                PEM_ASN1_read_bio
                0x00000000401b7d95                PEM_read_bio_PrivateKey
                0x00000000401b8047                PEM_write_bio_PrivateKey
                0x00000000401b80f7                PEM_read_bio_Parameters
                0x00000000401b8214                PEM_write_bio_Parameters
                0x00000000401b828a                PEM_read_bio_X509
                0x00000000401b82ae                PEM_write_bio_X509
                0x00000000401b82de                ERR_load_PKCS12_strings
                0x00000000401b83e0                d2i_PKCS7
                0x00000000401b83f3                i2d_PKCS7
                0x00000000401b8406                PKCS7_new
                0x00000000401b8419                PKCS7_free
                0x00000000401b842c                i2d_PKCS7_NDEF
                0x00000000401b843f                PKCS7_dup
                0x00000000401b8455                d2i_PKCS7_SIGNED
                0x00000000401b8468                i2d_PKCS7_SIGNED
                0x00000000401b847b                PKCS7_SIGNED_new
                0x00000000401b848e                PKCS7_SIGNED_free
                0x00000000401b84a1                d2i_PKCS7_SIGNER_INFO
                0x00000000401b84b4                i2d_PKCS7_SIGNER_INFO
                0x00000000401b84c7                PKCS7_SIGNER_INFO_new
                0x00000000401b84da                PKCS7_SIGNER_INFO_free
                0x00000000401b84ed                d2i_PKCS7_ISSUER_AND_SERIAL
                0x00000000401b8500                i2d_PKCS7_ISSUER_AND_SERIAL
                0x00000000401b8513                PKCS7_ISSUER_AND_SERIAL_new
                0x00000000401b8526                PKCS7_ISSUER_AND_SERIAL_free
                0x00000000401b8539                d2i_PKCS7_ENVELOPE
                0x00000000401b854c                i2d_PKCS7_ENVELOPE
                0x00000000401b855f                PKCS7_ENVELOPE_new
                0x00000000401b8572                PKCS7_ENVELOPE_free
                0x00000000401b8585                d2i_PKCS7_RECIP_INFO
                0x00000000401b8598                i2d_PKCS7_RECIP_INFO
                0x00000000401b85ab                PKCS7_RECIP_INFO_new
                0x00000000401b85be                PKCS7_RECIP_INFO_free
                0x00000000401b85d1                d2i_PKCS7_ENC_CONTENT
                0x00000000401b85e4                i2d_PKCS7_ENC_CONTENT
                0x00000000401b85f7                PKCS7_ENC_CONTENT_new
                0x00000000401b860a                PKCS7_ENC_CONTENT_free
                0x00000000401b861d                d2i_PKCS7_SIGN_ENVELOPE
                0x00000000401b8630                i2d_PKCS7_SIGN_ENVELOPE
                0x00000000401b8643                PKCS7_SIGN_ENVELOPE_new
                0x00000000401b8656                PKCS7_SIGN_ENVELOPE_free
                0x00000000401b8669                d2i_PKCS7_ENCRYPT
                0x00000000401b867c                i2d_PKCS7_ENCRYPT
                0x00000000401b868f                PKCS7_ENCRYPT_new
                0x00000000401b86a2                PKCS7_ENCRYPT_free
                0x00000000401b86b5                d2i_PKCS7_DIGEST
                0x00000000401b86c8                i2d_PKCS7_DIGEST
                0x00000000401b86db                PKCS7_DIGEST_new
                0x00000000401b86ee                PKCS7_DIGEST_free
                0x00000000401b8701                PKCS7_print_ctx
                0x00000000401b8c4d                PKCS7_dataInit
                0x00000000401b9289                PKCS7_dataDecode
                0x00000000401b9a26                PKCS7_SIGNER_INFO_sign
                0x00000000401b9bfc                PKCS7_get_issuer_and_serial
                0x00000000401b9c63                PKCS7_get_signed_attribute
                0x00000000401b9c75                PKCS7_dataFinal
                0x00000000401ba18b                PKCS7_get_attribute
                0x00000000401ba19d                PKCS7_digest_from_attributes
                0x00000000401ba1b9                PKCS7_signatureVerify
                0x00000000401ba4c5                PKCS7_dataVerify
                0x00000000401ba645                PKCS7_set_signed_attributes
                0x00000000401ba6c8                PKCS7_set_attributes
                0x00000000401ba74b                PKCS7_add_signed_attribute
                0x00000000401ba75d                PKCS7_add_attribute
                0x00000000401ba76f                PKCS7_ctrl
                0x00000000401ba888                PKCS7_set_content
                0x00000000401ba914                PKCS7_set_type
                0x00000000401baaf6                PKCS7_content_new
                0x00000000401bab47                PKCS7_set0_type_other
                0x00000000401bab6e                PKCS7_add_signer
                0x00000000401bacb5                PKCS7_add_certificate
                0x00000000401bad96                PKCS7_add_crl
                0x00000000401bae77                PKCS7_SIGNER_INFO_set
                0x00000000401bafc9                PKCS7_add_signature
                0x00000000401bb086                PKCS7_set_digest
                0x00000000401bb137                PKCS7_get_signer_info
                0x00000000401bb172                PKCS7_SIGNER_INFO_get0_algs
                0x00000000401bb197                PKCS7_RECIP_INFO_get0_alg
                0x00000000401bb1a4                PKCS7_add_recipient_info
                0x00000000401bb212                PKCS7_RECIP_INFO_set
                0x00000000401bb399                PKCS7_add_recipient
                0x00000000401bb3e5                PKCS7_cert_from_signer_info
                0x00000000401bb427                PKCS7_set_cipher
                0x00000000401bb4bc                PKCS7_stream
                0x00000000401bb57b                ERR_load_PKCS7_strings
                0x00000000401bb5b5                ERR_load_RAND_strings
                0x00000000401bb5ef                DES_random_key
                0x00000000401bb630                RAND_set_rand_method
                0x00000000401bb63d                RAND_get_rand_method
                0x00000000401bb66b                RAND_cleanup
                0x00000000401bb694                RAND_seed
                0x00000000401bb6bf                RAND_add
                0x00000000401bb6ef                RAND_bytes
                0x00000000401bb729                RAND_pseudo_bytes
                0x00000000401bb763                RAND_status
                0x00000000401bb78a                RC2_encrypt
                0x00000000401bb8b1                RC2_decrypt
                0x00000000401bba04                RC2_cbc_encrypt
                0x00000000401bc021                RC2_ecb_encrypt
                0x00000000401bc0e0                RC2_set_key
                0x00000000401bc1ec                RC2_cfb64_encrypt
                0x00000000401bc404                RC2_ofb64_encrypt
                0x00000000401bc5e5                RC4
                0x00000000401bc9c6                RC4_options
                0x00000000401bc9cc                RC4_set_key
                0x00000000401bcac2                RIPEMD160_Init
                0x00000000401bcafe                ripemd160_block_data_order
                0x00000000401bdf64                RIPEMD160_Update
                0x00000000401be094                RIPEMD160_Transform
                0x00000000401be09f                RIPEMD160_Final
                0x00000000401be1a9                d2i_RSAPrivateKey
                0x00000000401be1bc                i2d_RSAPrivateKey
                0x00000000401be1cf                d2i_RSAPublicKey
                0x00000000401be1e2                i2d_RSAPublicKey
                0x00000000401be1f5                RSAPublicKey_dup
                0x00000000401be20b                RSAPrivateKey_dup
                0x00000000401be221                RSA_generate_key
                0x00000000401be2e9                ERR_load_RSA_strings
                0x00000000401be323                RSA_generate_key_ex
                0x00000000401be94b                RSA_set_default_method
                0x00000000401be953                RSA_get_default_method
                0x00000000401be981                RSA_get_method
                0x00000000401be986                RSA_set_method
                0x00000000401be9bf                RSA_new_method
                0x00000000401beb0f                RSA_new
                0x00000000401beb22                RSA_free
                0x00000000401bec26                RSA_up_ref
                0x00000000401bec56                RSA_get_ex_new_index
                0x00000000401bec78                RSA_set_ex_data
                0x00000000401bec8a                RSA_get_ex_data
                0x00000000401bec9c                RSA_size
                0x00000000401becba                RSA_public_encrypt
                0x00000000401becca                RSA_private_encrypt
                0x00000000401becda                RSA_private_decrypt
                0x00000000401becea                RSA_public_decrypt
                0x00000000401becfa                RSA_flags
                0x00000000401bed0c                RSA_blinding_off
                0x00000000401bed39                RSA_setup_blinding
                0x00000000401befe1                RSA_blinding_on
                0x00000000401bf031                RSA_memory_lock
                0x00000000401bf177                RSA_sign
                0x00000000401bf3f4                int_rsa_verify
                0x00000000401bf7a4                RSA_verify
                0x00000000401bf7e3                DES_set_odd_parity
                0x00000000401bf7fd                DES_check_key_parity
                0x00000000401bf824                DES_is_weak_key
                0x00000000401bf864                DES_set_key_unchecked
                0x00000000401bfb13                DES_set_key_checked
                0x00000000401bfb54                DES_set_key
                0x00000000401bfb71                DES_key_sched
                0x00000000401bfb7f                SHA1
                0x00000000401c0e25                SHA1_Update
                0x00000000401c0f55                SHA1_Transform
                0x00000000401c0f60                SHA1_Final
                0x00000000401c102e                SHA1_Init
                0x00000000401c1fc6                SHA224_Init
                0x00000000401c201e                SHA256_Init
                0x00000000401c2076                SHA256_Update
                0x00000000401c21a6                SHA224_Update
                0x00000000401c21b4                SHA256_Transform
                0x00000000401c21bf                SHA256_Final
                0x00000000401c22f2                SHA224
                0x00000000401c2349                SHA256
                0x00000000401c23a0                SHA224_Final
                0x00000000401c3a32                SHA384_Init
                0x00000000401c3acb                SHA512_Init
                0x00000000401c3b64                SHA512_Final
                0x00000000401c3da2                SHA384_Final
                0x00000000401c3db0                SHA512_Update
                0x00000000401c3ec7                SHA384_Update
                0x00000000401c3ed5                SHA512_Transform
                0x00000000401c3ee0                SHA384
                0x00000000401c3f45                SHA512
                0x00000000401c5176                SHA_Update
                0x00000000401c52a6                SHA_Transform
                0x00000000401c52b1                SHA_Final
                0x00000000401c537f                SHA_Init
                0x00000000401c53bb                sk_set_cmp_func
                0x00000000401c53d0                sk_new
                0x00000000401c546b                sk_new_null
                0x00000000401c547e                sk_insert
                0x00000000401c551b                sk_delete
                0x00000000401c5587                sk_delete_ptr
                0x00000000401c55c1                sk_push
                0x00000000401c55d1                sk_unshift
                0x00000000401c55e4                sk_shift
                0x00000000401c5602                sk_pop
                0x00000000401c561f                sk_zero
                0x00000000401c5648                sk_free
                0x00000000401c566a                sk_dup
                0x00000000401c56e8                sk_pop_free
                0x00000000401c572c                sk_num
                0x00000000401c573a                sk_value
                0x00000000401c575f                sk_set
                0x00000000401c5787                sk_sort
                0x00000000401c5859                sk_find
                0x00000000401c586c                sk_find_ex
                0x00000000401c587f                sk_is_sorted
                0x00000000401c5d9f                ASN1_tag2bit
                0x00000000401c5db5                asn1_ex_c2i
                0x00000000401c65af                ASN1_item_ex_d2i
                0x00000000401c6f9e                ASN1_item_d2i
                0x00000000401c7525                ASN1_template_d2i
                0x00000000401c7572                asn1_ex_i2c
                0x00000000401c782b                ASN1_item_ex_i2d
                0x00000000401c7d20                ASN1_item_ndef_i2d
                0x00000000401c7d33                ASN1_item_i2d
                0x00000000401c8228                ASN1_template_i2d
                0x00000000401c8241                ASN1_primitive_free
                0x00000000401c85b2                ASN1_item_free
                0x00000000401c85cf                ASN1_item_ex_free
                0x00000000401c85e2                ASN1_template_free
                0x00000000401c8719                ASN1_primitive_new
                0x00000000401c8b8a                ASN1_item_ex_new
                0x00000000401c8b9d                ASN1_item_new
                0x00000000401c8bc9                ASN1_template_new
                0x00000000401c8c60                d2i_ASN1_INTEGER
                0x00000000401c8c73                i2d_ASN1_INTEGER
                0x00000000401c8c86                ASN1_INTEGER_new
                0x00000000401c8c99                ASN1_INTEGER_free
                0x00000000401c8cac                d2i_ASN1_ENUMERATED
                0x00000000401c8cbf                i2d_ASN1_ENUMERATED
                0x00000000401c8cd2                ASN1_ENUMERATED_new
                0x00000000401c8ce5                ASN1_ENUMERATED_free
                0x00000000401c8cf8                d2i_ASN1_BIT_STRING
                0x00000000401c8d0b                i2d_ASN1_BIT_STRING
                0x00000000401c8d1e                ASN1_BIT_STRING_new
                0x00000000401c8d31                ASN1_BIT_STRING_free
                0x00000000401c8d44                d2i_ASN1_OCTET_STRING
                0x00000000401c8d57                i2d_ASN1_OCTET_STRING
                0x00000000401c8d6a                ASN1_OCTET_STRING_new
                0x00000000401c8d7d                ASN1_OCTET_STRING_free
                0x00000000401c8d90                d2i_ASN1_NULL
                0x00000000401c8da3                i2d_ASN1_NULL
                0x00000000401c8db6                ASN1_NULL_new
                0x00000000401c8dc9                ASN1_NULL_free
                0x00000000401c8ddc                d2i_ASN1_UTF8STRING
                0x00000000401c8def                i2d_ASN1_UTF8STRING
                0x00000000401c8e02                ASN1_UTF8STRING_new
                0x00000000401c8e15                ASN1_UTF8STRING_free
                0x00000000401c8e28                d2i_ASN1_PRINTABLESTRING
                0x00000000401c8e3b                i2d_ASN1_PRINTABLESTRING
                0x00000000401c8e4e                ASN1_PRINTABLESTRING_new
                0x00000000401c8e61                ASN1_PRINTABLESTRING_free
                0x00000000401c8e74                d2i_ASN1_T61STRING
                0x00000000401c8e87                i2d_ASN1_T61STRING
                0x00000000401c8e9a                ASN1_T61STRING_new
                0x00000000401c8ead                ASN1_T61STRING_free
                0x00000000401c8ec0                d2i_ASN1_IA5STRING
                0x00000000401c8ed3                i2d_ASN1_IA5STRING
                0x00000000401c8ee6                ASN1_IA5STRING_new
                0x00000000401c8ef9                ASN1_IA5STRING_free
                0x00000000401c8f0c                d2i_ASN1_GENERALSTRING
                0x00000000401c8f1f                i2d_ASN1_GENERALSTRING
                0x00000000401c8f32                ASN1_GENERALSTRING_new
                0x00000000401c8f45                ASN1_GENERALSTRING_free
                0x00000000401c8f58                d2i_ASN1_UTCTIME
                0x00000000401c8f6b                i2d_ASN1_UTCTIME
                0x00000000401c8f7e                ASN1_UTCTIME_new
                0x00000000401c8f91                ASN1_UTCTIME_free
                0x00000000401c8fa4                d2i_ASN1_GENERALIZEDTIME
                0x00000000401c8fb7                i2d_ASN1_GENERALIZEDTIME
                0x00000000401c8fca                ASN1_GENERALIZEDTIME_new
                0x00000000401c8fdd                ASN1_GENERALIZEDTIME_free
                0x00000000401c8ff0                d2i_ASN1_VISIBLESTRING
                0x00000000401c9003                i2d_ASN1_VISIBLESTRING
                0x00000000401c9016                ASN1_VISIBLESTRING_new
                0x00000000401c9029                ASN1_VISIBLESTRING_free
                0x00000000401c903c                d2i_ASN1_UNIVERSALSTRING
                0x00000000401c904f                i2d_ASN1_UNIVERSALSTRING
                0x00000000401c9062                ASN1_UNIVERSALSTRING_new
                0x00000000401c9075                ASN1_UNIVERSALSTRING_free
                0x00000000401c9088                d2i_ASN1_BMPSTRING
                0x00000000401c909b                i2d_ASN1_BMPSTRING
                0x00000000401c90ae                ASN1_BMPSTRING_new
                0x00000000401c90c1                ASN1_BMPSTRING_free
                0x00000000401c90d4                d2i_ASN1_TYPE
                0x00000000401c90e7                i2d_ASN1_TYPE
                0x00000000401c90fa                ASN1_TYPE_new
                0x00000000401c910d                ASN1_TYPE_free
                0x00000000401c9120                d2i_ASN1_PRINTABLE
                0x00000000401c9133                i2d_ASN1_PRINTABLE
                0x00000000401c9146                ASN1_PRINTABLE_new
                0x00000000401c9159                ASN1_PRINTABLE_free
                0x00000000401c916c                d2i_DISPLAYTEXT
                0x00000000401c917f                i2d_DISPLAYTEXT
                0x00000000401c9192                DISPLAYTEXT_new
                0x00000000401c91a5                DISPLAYTEXT_free
                0x00000000401c91b8                d2i_DIRECTORYSTRING
                0x00000000401c91cb                i2d_DIRECTORYSTRING
                0x00000000401c91de                DIRECTORYSTRING_new
                0x00000000401c91f1                DIRECTORYSTRING_free
                0x00000000401c9204                d2i_ASN1_SEQUENCE_ANY
                0x00000000401c9217                i2d_ASN1_SEQUENCE_ANY
                0x00000000401c922a                d2i_ASN1_SET_ANY
                0x00000000401c923d                i2d_ASN1_SET_ANY
                0x00000000401c9282                asn1_get_choice_selector
                0x00000000401c928d                asn1_set_choice_selector
                0x00000000401c929b                asn1_do_lock
                0x00000000401c92f6                asn1_enc_init
                0x00000000401c9317                asn1_enc_free
                0x00000000401c934a                asn1_enc_save
                0x00000000401c93ba                asn1_enc_restore
                0x00000000401c9421                asn1_get_field_ptr
                0x00000000401c9435                asn1_do_adb
                0x00000000401c94e8                ERR_load_UI_strings
                0x00000000401c9522                ERR_load_X509V3_strings
                0x00000000401c955c                X509_issuer_and_serial_hash
                0x00000000401c962c                X509_CRL_match
                0x00000000401c9647                X509_get_issuer_name
                0x00000000401c964f                X509_get_subject_name
                0x00000000401c9657                X509_get_serialNumber
                0x00000000401c965f                X509_cmp
                0x00000000401c96ab                X509_NAME_cmp
                0x00000000401c9721                X509_issuer_and_serial_cmp
                0x00000000401c9754                X509_issuer_name_cmp
                0x00000000401c9770                X509_subject_name_cmp
                0x00000000401c978c                X509_CRL_cmp
                0x00000000401c97a8                X509_NAME_hash
                0x00000000401c980e                X509_issuer_name_hash
                0x00000000401c9823                X509_subject_name_hash
                0x00000000401c9838                X509_NAME_hash_old
                0x00000000401c989e                X509_issuer_name_hash_old
                0x00000000401c98b3                X509_subject_name_hash_old
                0x00000000401c98c8                X509_find_by_issuer_and_serial
                0x00000000401c9942                X509_find_by_subject
                0x00000000401c999d                X509_get_pubkey
                0x00000000401c99c1                X509_get0_pubkey_bitstr
                0x00000000401c99d6                X509_check_private_key
                0x00000000401c9a95                ERR_load_X509_strings
                0x00000000401c9acf                X509_NAME_oneline
                0x00000000401ca28d                X509_time_adj_ex
                0x00000000401ca2dd                X509_time_adj
                0x00000000401ca2f6                X509_cmp_time
                0x00000000401ca7c2                X509_cmp_current_time
                0x00000000401cb3ed                X509_gmtime_adj
                0x00000000401cb400                X509_get_pubkey_parameters
                0x00000000401cb519                X509_verify_cert
                0x00000000401cbef7                X509_STORE_CTX_get_ex_new_index
                0x00000000401cbf19                X509_STORE_CTX_set_ex_data
                0x00000000401cbf2e                X509_STORE_CTX_get_ex_data
                0x00000000401cbf43                X509_STORE_CTX_get_error
                0x00000000401cbf4a                X509_STORE_CTX_set_error
                0x00000000401cbf51                X509_STORE_CTX_get_error_depth
                0x00000000401cbf58                X509_STORE_CTX_get_current_cert
                0x00000000401cbf60                X509_STORE_CTX_get_chain
                0x00000000401cbf68                X509_STORE_CTX_get1_chain
                0x00000000401cbfd2                X509_STORE_CTX_get0_current_issuer
                0x00000000401cbfda                X509_STORE_CTX_get0_current_crl
                0x00000000401cbfe2                X509_STORE_CTX_get0_parent_ctx
                0x00000000401cbfea                X509_STORE_CTX_set_cert
                0x00000000401cbfef                X509_STORE_CTX_set_chain
                0x00000000401cbff4                X509_STORE_CTX_set0_crls
                0x00000000401cbff9                X509_STORE_CTX_purpose_inherit
                0x00000000401cc16f                X509_STORE_CTX_set_purpose
                0x00000000401cc189                X509_STORE_CTX_set_trust
                0x00000000401cc1a3                X509_STORE_CTX_new
                0x00000000401cc1f8                X509_STORE_CTX_init
                0x00000000401cc4d6                X509_STORE_CTX_trusted_stack
                0x00000000401cc4e3                X509_STORE_CTX_cleanup
                0x00000000401cc589                X509_STORE_CTX_free
                0x00000000401cc59c                X509_STORE_CTX_set_depth
                0x00000000401cc5ae                X509_STORE_CTX_set_flags
                0x00000000401cc5c0                X509_STORE_CTX_set_time
                0x00000000401cc5d4                X509_STORE_CTX_set_verify_cb
                0x00000000401cc5d9                X509_STORE_CTX_get0_policy_tree
                0x00000000401cc5e1                X509_STORE_CTX_get_explicit_policy
                0x00000000401cc5e8                X509_STORE_CTX_set_default
                0x00000000401cc60c                X509_STORE_CTX_get0_param
                0x00000000401cc611                X509_STORE_CTX_set0_param
                0x00000000401cc914                X509_VERIFY_PARAM_free
                0x00000000401cc99c                X509_VERIFY_PARAM_new
                0x00000000401cca17                X509_VERIFY_PARAM_set1_name
                0x00000000401cca4b                X509_VERIFY_PARAM_set_flags
                0x00000000401cca6c                X509_VERIFY_PARAM_clear_flags
                0x00000000401cca79                X509_VERIFY_PARAM_get_flags
                0x00000000401cca7e                X509_VERIFY_PARAM_set_purpose
                0x00000000401cca90                X509_VERIFY_PARAM_set_trust
                0x00000000401ccaa2                X509_VERIFY_PARAM_set_depth
                0x00000000401ccaa6                X509_VERIFY_PARAM_set_time
                0x00000000401ccaaf                X509_VERIFY_PARAM_add0_policy
                0x00000000401ccaf2                X509_VERIFY_PARAM_set1_policies
                0x00000000401ccbbb                X509_VERIFY_PARAM_inherit
                0x00000000401ccd36                X509_VERIFY_PARAM_set1
                0x00000000401ccd5e                X509_VERIFY_PARAM_get_depth
                0x00000000401ccd62                X509_VERIFY_PARAM_add0_table
                0x00000000401ccde7                X509_VERIFY_PARAM_lookup
                0x00000000401cce3f                X509_VERIFY_PARAM_table_cleanup
                0x00000000401cce75                d2i_X509_ALGOR
                0x00000000401cce88                i2d_X509_ALGOR
                0x00000000401cce9b                X509_ALGOR_new
                0x00000000401cceae                X509_ALGOR_free
                0x00000000401ccec1                d2i_X509_ALGORS
                0x00000000401cced4                i2d_X509_ALGORS
                0x00000000401ccee7                X509_ALGOR_dup
                0x00000000401ccefd                X509_ALGOR_set0
                0x00000000401ccfb5                X509_ALGOR_get0
                0x00000000401ccfea                X509_verify
                0x00000000401cd00b                X509_REQ_verify
                0x00000000401cd02c                NETSCAPE_SPKI_verify
                0x00000000401cd04d                X509_sign
                0x00000000401cd080                X509_REQ_sign
                0x00000000401cd0a7                X509_CRL_sign
                0x00000000401cd0da                NETSCAPE_SPKI_sign
                0x00000000401cd101                d2i_X509_bio
                0x00000000401cd11a                i2d_X509_bio
                0x00000000401cd133                d2i_X509_CRL_bio
                0x00000000401cd14c                i2d_X509_CRL_bio
                0x00000000401cd165                d2i_PKCS7_bio
                0x00000000401cd17e                i2d_PKCS7_bio
                0x00000000401cd197                d2i_X509_REQ_bio
                0x00000000401cd1b0                i2d_X509_REQ_bio
                0x00000000401cd1c9                d2i_RSAPrivateKey_bio
                0x00000000401cd1e2                i2d_RSAPrivateKey_bio
                0x00000000401cd1fb                d2i_RSAPublicKey_bio
                0x00000000401cd214                d2i_RSA_PUBKEY_bio
                0x00000000401cd232                i2d_RSAPublicKey_bio
                0x00000000401cd24b                i2d_RSA_PUBKEY_bio
                0x00000000401cd264                d2i_DSAPrivateKey_bio
                0x00000000401cd282                i2d_DSAPrivateKey_bio
                0x00000000401cd29b                d2i_DSA_PUBKEY_bio
                0x00000000401cd2b9                i2d_DSA_PUBKEY_bio
                0x00000000401cd2d2                d2i_EC_PUBKEY_bio
                0x00000000401cd2f0                i2d_EC_PUBKEY_bio
                0x00000000401cd309                d2i_ECPrivateKey_bio
                0x00000000401cd327                i2d_ECPrivateKey_bio
                0x00000000401cd340                X509_pubkey_digest
                0x00000000401cd380                X509_digest
                0x00000000401cd39c                X509_CRL_digest
                0x00000000401cd3b8                X509_REQ_digest
                0x00000000401cd3d4                X509_NAME_digest
                0x00000000401cd3f0                PKCS7_ISSUER_AND_SERIAL_digest
                0x00000000401cd40c                d2i_PKCS8_bio
                0x00000000401cd42a                i2d_PKCS8_bio
                0x00000000401cd443                d2i_PKCS8_PRIV_KEY_INFO_bio
                0x00000000401cd461                i2d_PKCS8_PRIV_KEY_INFO_bio
                0x00000000401cd47a                i2d_PKCS8PrivateKeyInfo_bio
                0x00000000401cd4b2                i2d_PrivateKey_bio
                0x00000000401cd4cb                d2i_PrivateKey_bio
                0x00000000401cd4e9                i2d_PUBKEY_bio
                0x00000000401cd502                d2i_PUBKEY_bio
                0x00000000401cd520                d2i_X509_ATTRIBUTE
                0x00000000401cd533                i2d_X509_ATTRIBUTE
                0x00000000401cd546                X509_ATTRIBUTE_new
                0x00000000401cd559                X509_ATTRIBUTE_free
                0x00000000401cd56c                X509_ATTRIBUTE_dup
                0x00000000401cd582                X509_ATTRIBUTE_create
                0x00000000401cdd26                d2i_X509_REVOKED
                0x00000000401cdd39                i2d_X509_REVOKED
                0x00000000401cdd4c                X509_REVOKED_new
                0x00000000401cdd5f                X509_REVOKED_free
                0x00000000401cdd72                d2i_X509_CRL_INFO
                0x00000000401cdd85                i2d_X509_CRL_INFO
                0x00000000401cdd98                X509_CRL_INFO_new
                0x00000000401cddab                X509_CRL_INFO_free
                0x00000000401cddbe                d2i_X509_CRL
                0x00000000401cddd1                i2d_X509_CRL
                0x00000000401cdde4                X509_CRL_new
                0x00000000401cddf7                X509_CRL_free
                0x00000000401cde0a                X509_CRL_dup
                0x00000000401cde20                X509_CRL_add0_revoked
                0x00000000401cde90                X509_CRL_verify
                0x00000000401cdeae                X509_CRL_get0_by_serial
                0x00000000401cded2                X509_CRL_get0_by_cert
                0x00000000401cdf21                X509_CRL_set_default_method
                0x00000000401cdf35                X509_CRL_METHOD_new
                0x00000000401cdf85                X509_CRL_METHOD_free
                0x00000000401cdf99                X509_CRL_set_meth_data
                0x00000000401cdf9e                X509_CRL_get_meth_data
                0x00000000401cdfa3                d2i_X509_EXTENSION
                0x00000000401cdfb6                i2d_X509_EXTENSION
                0x00000000401cdfc9                X509_EXTENSION_new
                0x00000000401cdfdc                X509_EXTENSION_free
                0x00000000401cdfef                d2i_X509_EXTENSIONS
                0x00000000401ce002                i2d_X509_EXTENSIONS
                0x00000000401ce015                X509_EXTENSION_dup
                0x00000000401ce224                X509_NAME_ENTRY_free
                0x00000000401ce400                d2i_X509_NAME_ENTRY
                0x00000000401ce413                i2d_X509_NAME_ENTRY
                0x00000000401ce426                X509_NAME_ENTRY_new
                0x00000000401ce90c                X509_NAME_ENTRY_dup
                0x00000000401ce922                d2i_X509_NAME
                0x00000000401ce935                i2d_X509_NAME
                0x00000000401ce948                X509_NAME_new
                0x00000000401ce95b                X509_NAME_free
                0x00000000401ceb06                X509_NAME_dup
                0x00000000401ceb1c                X509_NAME_set
                0x00000000401ceb92                d2i_X509_PUBKEY
                0x00000000401ceba5                i2d_X509_PUBKEY
                0x00000000401cebb8                X509_PUBKEY_new
                0x00000000401cebcb                X509_PUBKEY_free
                0x00000000401cebde                X509_PUBKEY_set
                0x00000000401cecb7                X509_PUBKEY_get
                0x00000000401cee7d                d2i_PUBKEY
                0x00000000401ceecd                i2d_PUBKEY
                0x00000000401cef20                d2i_RSA_PUBKEY
                0x00000000401cef95                i2d_RSA_PUBKEY
                0x00000000401cf00d                d2i_DSA_PUBKEY
                0x00000000401cf082                i2d_DSA_PUBKEY
                0x00000000401cf0fa                d2i_EC_PUBKEY
                0x00000000401cf16f                i2d_EC_PUBKEY
                0x00000000401cf1e7                X509_PUBKEY_set0_param
                0x00000000401cf247                X509_PUBKEY_get0_param
                0x00000000401cf2a1                d2i_X509_REQ_INFO
                0x00000000401cf2b4                i2d_X509_REQ_INFO
                0x00000000401cf2c7                X509_REQ_INFO_new
                0x00000000401cf2da                X509_REQ_INFO_free
                0x00000000401cf2ed                d2i_X509_REQ
                0x00000000401cf300                i2d_X509_REQ
                0x00000000401cf313                X509_REQ_new
                0x00000000401cf326                X509_REQ_free
                0x00000000401cf339                X509_REQ_dup
                0x00000000401cf34f                d2i_X509_SIG
                0x00000000401cf362                i2d_X509_SIG
                0x00000000401cf375                X509_SIG_new
                0x00000000401cf388                X509_SIG_free
                0x00000000401cf39b                d2i_NETSCAPE_SPKAC
                0x00000000401cf3ae                i2d_NETSCAPE_SPKAC
                0x00000000401cf3c1                NETSCAPE_SPKAC_new
                0x00000000401cf3d4                NETSCAPE_SPKAC_free
                0x00000000401cf3e7                d2i_NETSCAPE_SPKI
                0x00000000401cf3fa                i2d_NETSCAPE_SPKI
                0x00000000401cf40d                NETSCAPE_SPKI_new
                0x00000000401cf420                NETSCAPE_SPKI_free
                0x00000000401cf549                d2i_X509_CINF
                0x00000000401cf55c                i2d_X509_CINF
                0x00000000401cf56f                X509_CINF_new
                0x00000000401cf582                X509_CINF_free
                0x00000000401cf595                d2i_X509
                0x00000000401cf5a8                i2d_X509
                0x00000000401cf5bb                X509_new
                0x00000000401cf5ce                X509_free
                0x00000000401cf5e1                X509_dup
                0x00000000401cf5f7                X509_get_ex_new_index
                0x00000000401cf619                X509_set_ex_data
                0x00000000401cf62b                X509_get_ex_data
                0x00000000401cf63d                d2i_X509_AUX
                0x00000000401cf69a                i2d_X509_AUX
                0x00000000401cf6c8                d2i_X509_CERT_AUX
                0x00000000401cf6db                i2d_X509_CERT_AUX
                0x00000000401cf6ee                X509_CERT_AUX_new
                0x00000000401cf735                X509_CERT_AUX_free
                0x00000000401cf748                X509_alias_set1
                0x00000000401cf7e6                X509_keyid_set1
                0x00000000401cf884                X509_alias_get0
                0x00000000401cf8b2                X509_keyid_get0
                0x00000000401cf8e0                X509_add1_trust_object
                0x00000000401cf943                X509_add1_reject_object
                0x00000000401cf9a7                X509_trust_clear
                0x00000000401cf9da                X509_reject_clear
                0x00000000401cfa0f                d2i_X509_CERT_PAIR
                0x00000000401cfa22                i2d_X509_CERT_PAIR
                0x00000000401cfa35                X509_CERT_PAIR_new
                0x00000000401cfa48                X509_CERT_PAIR_free
                0x00000000401cfa5b                DES_xcbc_encrypt
                0x00000000401d01eb                ERR_load_TS_strings
                0x00000000401d0225                ERR_load_CMS_strings
                0x00000000401d0298                OBJ_find_sigid_algs
                0x00000000401d0319                OBJ_find_sigid_by_algs
                0x00000000401d03a2                OBJ_add_sigid
                0x00000000401d049d                OBJ_sigid_free
                0x00000000401d051f                EVP_whirlpool
                0x00000000401d053b                EVP_PKEY_meth_find
                0x00000000401d05a7                EVP_PKEY_meth_new
                0x00000000401d06c3                EVP_PKEY_meth_free
                0x00000000401d06dd                EVP_PKEY_meth_add0
                0x00000000401d0730                EVP_PKEY_CTX_free
                0x00000000401d089a                EVP_PKEY_CTX_new
                0x00000000401d08ad                EVP_PKEY_CTX_new_id
                0x00000000401d08c2                EVP_PKEY_CTX_dup
                0x00000000401d09ae                EVP_PKEY_CTX_ctrl
                0x00000000401d0a9e                EVP_PKEY_CTX_ctrl_str
                0x00000000401d0b7a                EVP_PKEY_CTX_get_operation
                0x00000000401d0b7e                EVP_PKEY_CTX_set0_keygen_info
                0x00000000401d0b86                EVP_PKEY_CTX_set_data
                0x00000000401d0b8b                EVP_PKEY_CTX_get_data
                0x00000000401d0b90                EVP_PKEY_CTX_get0_pkey
                0x00000000401d0b95                EVP_PKEY_CTX_get0_peerkey
                0x00000000401d0b9a                EVP_PKEY_CTX_set_app_data
                0x00000000401d0b9f                EVP_PKEY_CTX_get_app_data
                0x00000000401d0ba4                EVP_PKEY_meth_set_init
                0x00000000401d0ba9                EVP_PKEY_meth_set_copy
                0x00000000401d0bae                EVP_PKEY_meth_set_cleanup
                0x00000000401d0bb3                EVP_PKEY_meth_set_paramgen
                0x00000000401d0bbc                EVP_PKEY_meth_set_keygen
                0x00000000401d0bc5                EVP_PKEY_meth_set_sign
                0x00000000401d0bce                EVP_PKEY_meth_set_verify
                0x00000000401d0bd7                EVP_PKEY_meth_set_verify_recover
                0x00000000401d0be0                EVP_PKEY_meth_set_signctx
                0x00000000401d0be9                EVP_PKEY_meth_set_verifyctx
                0x00000000401d0bf8                EVP_PKEY_meth_set_encrypt
                0x00000000401d0c07                EVP_PKEY_meth_set_decrypt
                0x00000000401d0c16                EVP_PKEY_meth_set_derive
                0x00000000401d0c25                EVP_PKEY_meth_set_ctrl
                0x00000000401d0c4a                EVP_PKEY_asn1_get_count
                0x00000000401d0c6d                EVP_PKEY_asn1_get0
                0x00000000401d0ca0                EVP_PKEY_asn1_find
                0x00000000401d0d37                EVP_PKEY_asn1_find_str
                0x00000000401d0dc1                EVP_PKEY_asn1_add0
                0x00000000401d0e14                EVP_PKEY_asn1_get0_info
                0x00000000401d0e62                EVP_PKEY_get0_asn1
                0x00000000401d0e67                EVP_PKEY_asn1_copy
                0x00000000401d0f2a                EVP_PKEY_asn1_free
                0x00000000401d0f60                EVP_PKEY_asn1_new
                0x00000000401d10c2                EVP_PKEY_asn1_add_alias
                0x00000000401d10f2                EVP_PKEY_asn1_set_public
                0x00000000401d1110                EVP_PKEY_asn1_set_private
                0x00000000401d111d                EVP_PKEY_asn1_set_param
                0x00000000401d1144                EVP_PKEY_asn1_set_free
                0x00000000401d114c                EVP_PKEY_asn1_set_ctrl
                0x00000000401d1154                EVP_PKEY_sign_init
                0x00000000401d11ba                EVP_PKEY_sign
                0x00000000401d12a8                EVP_PKEY_verify_init
                0x00000000401d130e                EVP_PKEY_verify
                0x00000000401d1381                EVP_PKEY_verify_recover_init
                0x00000000401d13e7                EVP_PKEY_verify_recover
                0x00000000401d14d5                EVP_PKEY_encrypt_init
                0x00000000401d1541                EVP_PKEY_encrypt
                0x00000000401d163c                EVP_PKEY_decrypt_init
                0x00000000401d16a8                EVP_PKEY_decrypt
                0x00000000401d17a3                EVP_PKEY_derive_init
                0x00000000401d180f                EVP_PKEY_derive_set_peer
                0x00000000401d1a21                EVP_PKEY_derive
                0x00000000401d1c12                ASN1_PCTX_new
                0x00000000401d1c7c                ASN1_PCTX_free
                0x00000000401d1c8a                ASN1_PCTX_get_flags
                0x00000000401d1c8e                ASN1_PCTX_set_flags
                0x00000000401d1c92                ASN1_PCTX_get_nm_flags
                0x00000000401d1c97                ASN1_PCTX_set_nm_flags
                0x00000000401d1c9c                ASN1_PCTX_get_cert_flags
                0x00000000401d1ca1                ASN1_PCTX_set_cert_flags
                0x00000000401d1ca6                ASN1_PCTX_get_oid_flags
                0x00000000401d1cab                ASN1_PCTX_set_oid_flags
                0x00000000401d1cb0                ASN1_PCTX_get_str_flags
                0x00000000401d1cb5                ASN1_PCTX_set_str_flags
                0x00000000401d1cba                asn1_template_print_ctx
                0x00000000401d25a3                ASN1_item_print
                0x00000000401d2785                EVP_DigestSignInit
                0x00000000401d2799                EVP_DigestVerifyInit
                0x00000000401d27ad                EVP_DigestSignFinal
                0x00000000401d28c8                EVP_DigestVerifyFinal
                0x00000000401d2989                WHIRLPOOL_Init
                0x00000000401d29a6                WHIRLPOOL_BitUpdate
                0x00000000401d2cd5                WHIRLPOOL_Update
                0x00000000401d2da3                WHIRLPOOL_Final
                0x00000000401d2ec3                WHIRLPOOL
                0x00000000401d5ff3                DHparams_print
                0x00000000401d7eca                whirlpool_block
                0x00000000401d8add                EVP_PKEY_paramgen_init
                0x00000000401d8b43                EVP_PKEY_paramgen
                0x00000000401d8c05                EVP_PKEY_keygen_init
                0x00000000401d8c6b                EVP_PKEY_keygen
                0x00000000401d8d2d                EVP_PKEY_CTX_set_cb
                0x00000000401d8d32                EVP_PKEY_CTX_get_cb
                0x00000000401d8d37                evp_pkey_set_cb_translate
                0x00000000401d8d4a                EVP_PKEY_CTX_get_keygen_info
                0x00000000401d8d6c                EVP_PKEY_new_mac_key
                0x00000000401d8ec3                CMS_SignedData_init
                0x00000000401d8eda                cms_set1_SignerIdentifier
                0x00000000401d8fd8                cms_SignerIdentifier_get0_signer_id
                0x00000000401d9020                cms_SignerIdentifier_cert_cmp
                0x00000000401d90a5                CMS_get0_SignerInfos
                0x00000000401d90bc                CMS_get0_signers
                0x00000000401d913e                CMS_SignerInfo_set1_signer_cert
                0x00000000401d91a0                CMS_SignerInfo_get0_signer_id
                0x00000000401d91aa                CMS_SignerInfo_cert_cmp
                0x00000000401d91bc                CMS_set1_signers_certs
                0x00000000401d92e2                CMS_SignerInfo_get0_algs
                0x00000000401d9313                CMS_SignerInfo_sign
                0x00000000401d9587                cms_SignedData_final
                0x00000000401d978c                CMS_SignerInfo_verify
                0x00000000401d98b5                cms_SignedData_init_bio
                0x00000000401d9a6e                CMS_SignerInfo_verify_content
                0x00000000401d9c33                CMS_add_smimecap
                0x00000000401d9c8a                CMS_add_simple_smimecap
                0x00000000401d9da2                CMS_add_standard_smimecap
                0x00000000401d9eba                CMS_add1_signer
                0x00000000401da425                CMS_get0_RecipientInfos
                0x00000000401da43c                CMS_RecipientInfo_type
                0x00000000401da43f                CMS_EnvelopedData_create
                0x00000000401da52c                CMS_add1_recipient_cert
                0x00000000401da71a                CMS_RecipientInfo_ktri_get0_algs
                0x00000000401da780                CMS_RecipientInfo_ktri_get0_signer_id
                0x00000000401da7c1                CMS_RecipientInfo_ktri_cert_cmp
                0x00000000401da802                CMS_RecipientInfo_set0_pkey
                0x00000000401da842                CMS_RecipientInfo_kekri_id_cmp
                0x00000000401da8a5                CMS_add0_recipient_key
                0x00000000401dab2b                CMS_RecipientInfo_kekri_get0_id
                0x00000000401dabd2                CMS_RecipientInfo_set0_key
                0x00000000401dac16                CMS_RecipientInfo_decrypt
                0x00000000401dafe8                cms_EnvelopedData_init_bio
                0x00000000401db404                EC_KEY_print
                0x00000000401db462                ECParameters_print
                0x00000000401db4c3                ECPKParameters_print
                0x00000000401dbed0                CMS_signed_get_attr_count
                0x00000000401dbee2                CMS_signed_get_attr_by_NID
                0x00000000401dbef4                CMS_signed_get_attr_by_OBJ
                0x00000000401dbf06                CMS_signed_get_attr
                0x00000000401dbf18                CMS_signed_delete_attr
                0x00000000401dbf2a                CMS_signed_add1_attr
                0x00000000401dbf45                CMS_signed_add1_attr_by_OBJ
                0x00000000401dbf60                CMS_signed_add1_attr_by_NID
                0x00000000401dbf7b                CMS_signed_add1_attr_by_txt
                0x00000000401dbf96                CMS_signed_get0_data_by_OBJ
                0x00000000401dbfa8                CMS_unsigned_get_attr_count
                0x00000000401dbfba                CMS_unsigned_get_attr_by_NID
                0x00000000401dbfcc                CMS_unsigned_get_attr_by_OBJ
                0x00000000401dbfde                CMS_unsigned_get_attr
                0x00000000401dbff0                CMS_unsigned_delete_attr
                0x00000000401dc002                CMS_unsigned_add1_attr
                0x00000000401dc01d                CMS_unsigned_add1_attr_by_OBJ
                0x00000000401dc038                CMS_unsigned_add1_attr_by_NID
                0x00000000401dc053                CMS_unsigned_add1_attr_by_txt
                0x00000000401dc06e                CMS_unsigned_get0_data_by_OBJ
                0x00000000401dc1b9                d2i_CMS_ContentInfo
                0x00000000401dc1cc                i2d_CMS_ContentInfo
                0x00000000401dc1df                CMS_ContentInfo_new
                0x00000000401dc1f2                CMS_ContentInfo_free
                0x00000000401dc205                CMS_ContentInfo_print_ctx
                0x00000000401dc21b                CMS_get0_type
                0x00000000401dc21f                CMS_get0_content
                0x00000000401dc2e3                cms_content_bio
                0x00000000401dc32e                CMS_dataInit
                0x00000000401dc405                CMS_dataFinal
                0x00000000401dc56d                CMS_get0_eContentType
                0x00000000401dc583                CMS_set1_eContentType
                0x00000000401dc5d6                CMS_is_detached
                0x00000000401dc5fa                CMS_set_detached
                0x00000000401dc685                cms_Data_create
                0x00000000401dc6b2                cms_DigestAlgorithm_set
                0x00000000401dc6f6                cms_DigestAlgorithm_init_bio
                0x00000000401dc7e0                cms_DigestAlgorithm_find_ctx
                0x00000000401dc8b5                CMS_add0_CertificateChoices
                0x00000000401dc924                CMS_add0_cert
                0x00000000401dc9d7                CMS_add1_cert
                0x00000000401dca14                CMS_add0_RevocationInfoChoice
                0x00000000401dca83                CMS_add0_crl
                0x00000000401dcaa9                CMS_add1_crl
                0x00000000401dcae6                CMS_get1_certs
                0x00000000401dcb9d                CMS_get1_crls
                0x00000000401dcd71                cms_EncryptedContent_init_bio
                0x00000000401dd26c                cms_EncryptedContent_init
                0x00000000401dd2e3                CMS_EncryptedData_set1_key
                0x00000000401dd3da                cms_EncryptedData_init_bio
                0x00000000401dd405                AES_wrap_key
                0x00000000401dd523                AES_unwrap_key
                0x00000000401dd671                cms_DigestedData_create
                0x00000000401dd6ef                cms_DigestedData_init_bio
                0x00000000401dd705                cms_DigestedData_do_final
                0x00000000401dd7fe                CMS_stream
                0x00000000401dd87d                d2i_CMS_bio
                0x00000000401dd896                i2d_CMS_bio
                0x00000000401dd8af                PEM_read_bio_CMS
                0x00000000401dd8d3                PEM_write_bio_CMS
                0x00000000401dd903                BIO_new_CMS
                0x00000000401dd916                i2d_CMS_bio_stream
                0x00000000401dd92a                PEM_write_bio_CMS_stream
                0x00000000401dd944                SMIME_write_CMS
                0x00000000401dd9b0                SMIME_read_CMS
                0x00000000401de1d8                SMIME_read_ASN1
                0x00000000401de61d                SMIME_crlf_copy
                0x00000000401de752                i2d_ASN1_bio_stream
                0x00000000401de8c0                PEM_write_bio_ASN1_stream
                0x00000000401de930                SMIME_write_ASN1
                0x00000000401defaf                SMIME_text
                0x00000000401df2b0                BIO_new_NDEF
                0x00000000401df9ec                BIO_f_asn1
                0x00000000401df9f2                BIO_asn1_set_prefix
                0x00000000401dfa16                BIO_asn1_get_prefix
                0x00000000401dfa4f                BIO_asn1_set_suffix
                0x00000000401dfa73                BIO_asn1_get_suffix
                0x00000000401dfaac                chelp_snprintf
                0x00000000401dfaf1                chelp_sprintf
                0x00000000401dfb41                chelp_print
                0x00000000401dfb5c                chelp_printf
                0x00000000401dfbec                chelp_mod_64_32_32
                0x00000000401dfbfc                chelp_div_64_32_32
                0x00000000401dfc0a                chelp_div_64_32_64
                0x00000000401dfc18                chelp_mul_64_64_64
                0x00000000401dfc20                BIO_printf
                0x00000000401dfc66                BIO_snprintf
                0x00000000401dfca4                chelp_abort
                0x00000000401dfcb7                RAND_poll
                0x00000000401dfcd9                InitCryptoLibrary
                0x00000000401dfd44                chelp_malloc
                0x00000000401dfd5e                chelp_realloc
                0x00000000401dfd81                chelp_free
                0x00000000401dfd95                chelp_swap
                0x00000000401dfdc2                chelp_qsort
                0x00000000401e0061                chelp_bsearch
                0x00000000401e012b                chelp_memchr
                0x00000000401e015e                chelp_memmove
                0x00000000401e01cd                chelp_memcmp
                0x00000000401e0219                chelp_memcpy
                0x00000000401e0245                chelp_memset
                0x00000000401e0267                chelp_isupper
                0x00000000401e0275                chelp_islower
                0x00000000401e0283                chelp_toupper
                0x00000000401e028a                chelp_tolower
                0x00000000401e0291                chelp_isspace
                0x00000000401e02a7                chelp_isdigit
                0x00000000401e02b5                chelp_isxdigit
                0x00000000401e02d3                chelp_isalpha
                0x00000000401e02e4                chelp_isalnum
                0x00000000401e02ff                chelp_strtoul_ex
                0x00000000401e04a4                chelp_strtol
                0x00000000401e04af                chelp_strtoul
                0x00000000401e04ba                chelp_strcpy
                0x00000000401e04e3                chelp_strncpy
                0x00000000401e0533                chelp_strcat
                0x00000000401e0572                chelp_strcmp
                0x00000000401e05cc                chelp_strncmp
                0x00000000401e06a6                chelp_stricmp
                0x00000000401e06e2                chelp_strchr
                0x00000000401e070b                chelp_strrchr
                0x00000000401e0732                chelp_strlen
                0x00000000401e0768                chelp_strncasecmp
                0x00000000401e07b2                decryptcfg
                0x00000000401e082c                ASN1_BIT_STRING_set
                0x00000000401e083a                i2c_ASN1_BIT_STRING
                0x00000000401e09a0                c2i_ASN1_BIT_STRING
                0x00000000401e0b11                ASN1_BIT_STRING_set_bit
                0x00000000401e0c76                ASN1_BIT_STRING_get_bit
                0x00000000401e0cc5                ASN1_BIT_STRING_check
                0x00000000401e0d2d                d2i_ASN1_type_bytes
                0x00000000401e0ed9                i2d_ASN1_bytes
                0x00000000401e0f81                d2i_ASN1_bytes
                0x00000000401e1679                ASN1_d2i_bio
                0x00000000401e16da                ASN1_item_d2i_bio
                0x00000000401e1743                ASN1_digest
                0x00000000401e17f6                ASN1_item_digest
                0x00000000401e1863                ASN1_dup
                0x00000000401e18ff                ASN1_item_dup
                0x00000000401e1984                ASN1_ENUMERATED_set
                0x00000000401e1aa5                ASN1_ENUMERATED_get
                0x00000000401e1b2c                BN_to_ASN1_ENUMERATED
                0x00000000401e1c1a                ASN1_ENUMERATED_to_BN
                0x00000000401e1c7c                ASN1_GENERALIZEDTIME_check
                0x00000000401e1ebe                ASN1_GENERALIZEDTIME_set_string
                0x00000000401e1f27                ASN1_GENERALIZEDTIME_adj
                0x00000000401e2075                ASN1_GENERALIZEDTIME_set
                0x00000000401e208d                ASN1_i2d_bio
                0x00000000401e2142                ASN1_item_i2d_bio
                0x00000000401e21dd                ASN1_INTEGER_dup
                0x00000000401e21eb                ASN1_INTEGER_cmp
                0x00000000401e221e                i2c_ASN1_INTEGER
                0x00000000401e2397                c2i_ASN1_INTEGER
                0x00000000401e25ba                d2i_ASN1_UINTEGER
                0x00000000401e27c9                ASN1_INTEGER_set
                0x00000000401e28ea                ASN1_INTEGER_get
                0x00000000401e2974                BN_to_ASN1_INTEGER
                0x00000000401e2a77                ASN1_INTEGER_to_BN
                0x00000000401e2ad9                i2d_ASN1_OBJECT
                0x00000000401e2b6b                a2d_ASN1_OBJECT
                0x00000000401e3096                i2t_ASN1_OBJECT
                0x00000000401e30a9                i2a_ASN1_OBJECT
                0x00000000401e317c                ASN1_OBJECT_new
                0x00000000401e31eb                ASN1_OBJECT_free
                0x00000000401e325a                c2i_ASN1_OBJECT
                0x00000000401e33db                d2i_ASN1_OBJECT
                0x00000000401e3469                ASN1_OBJECT_create
                0x00000000401e349b                ASN1_OCTET_STRING_dup
                0x00000000401e34a9                ASN1_OCTET_STRING_cmp
                0x00000000401e34b7                ASN1_OCTET_STRING_set
                0x00000000401e34c5                ASN1_sign
                0x00000000401e3776                ASN1_item_sign
                0x00000000401e41da                X509_NAME_print_ex
                0x00000000401e4666                ASN1_STRING_print_ex
                0x00000000401e467f                ASN1_STRING_to_UTF8
                0x00000000401e46fc                d2i_ASN1_TIME
                0x00000000401e470f                i2d_ASN1_TIME
                0x00000000401e4722                ASN1_TIME_new
                0x00000000401e4735                ASN1_TIME_free
                0x00000000401e4748                ASN1_TIME_adj
                0x00000000401e47fa                ASN1_TIME_set
                0x00000000401e4812                ASN1_TIME_check
                0x00000000401e4841                ASN1_TIME_to_generalizedtime
                0x00000000401e4934                ASN1_TIME_set_string
                0x00000000401e49ae                ASN1_TYPE_get
                0x00000000401e49c4                ASN1_TYPE_set
                0x00000000401e4a1b                ASN1_TYPE_set1
                0x00000000401e4a9a                ASN1_TYPE_cmp
                0x00000000401e4aeb                ASN1_UTCTIME_check
                0x00000000401e4ca8                ASN1_UTCTIME_set_string
                0x00000000401e4d11                ASN1_UTCTIME_adj
                0x00000000401e4e89                ASN1_UTCTIME_set
                0x00000000401e4ea1                ASN1_UTCTIME_cmp_time_t
                0x00000000401e5048                UTF8_getc
                0x00000000401e545e                UTF8_putc
                0x00000000401e5683                ASN1_verify
                0x00000000401e57ec                ASN1_item_verify
                0x00000000401e5a17                AES_cbc_encrypt
                0x00000000401e5a3d                AES_cfb128_encrypt
                0x00000000401e5a55                AES_cfb1_encrypt
                0x00000000401e5a6d                AES_cfb8_encrypt
                0x00000000401e5a85                AES_ecb_encrypt
                0x00000000401e5a9f                AES_ofb128_encrypt
                0x00000000401e5ab2                ERR_load_ASN1_strings
                0x00000000401e5b82                ASN1_check_infinite_end
                0x00000000401e5b88                ASN1_const_check_infinite_end
                0x00000000401e5b8e                ASN1_get_object
                0x00000000401e5d4d                ASN1_put_object
                0x00000000401e5e46                ASN1_put_eoc
                0x00000000401e5e5d                ASN1_object_size
                0x00000000401e5e8b                asn1_Finish
                0x00000000401e5e91                asn1_const_Finish
                0x00000000401e5e97                asn1_GetSequence
                0x00000000401e5f27                ASN1_STRING_set
                0x00000000401e6006                ASN1_STRING_copy
                0x00000000401e6046                ASN1_STRING_set0
                0x00000000401e606b                ASN1_STRING_type_new
                0x00000000401e60d3                ASN1_STRING_new
                0x00000000401e60e6                ASN1_STRING_free
                0x00000000401e6110                ASN1_STRING_dup
                0x00000000401e6158                ASN1_STRING_cmp
                0x00000000401e618b                asn1_add_error
                0x00000000401e61f2                ASN1_STRING_length
                0x00000000401e61f5                ASN1_STRING_length_set
                0x00000000401e61f8                ASN1_STRING_type
                0x00000000401e61fc                ASN1_STRING_data
                0x00000000401e6201                ASN1_tag2str
                0x00000000401e6d91                ASN1_parse
                0x00000000401e6db9                ASN1_parse_dump
                0x00000000401e6dfa                BIO_dump_indent_cb
                0x00000000401e719b                BIO_dump_cb
                0x00000000401e71af                BIO_dump
                0x00000000401e71ca                BIO_dump_indent
                0x00000000401e7b45                BIO_f_buffer
                0x00000000401e7b4b                BF_cfb64_encrypt
                0x00000000401e7d37                BF_options
                0x00000000401e7d3d                BF_ecb_encrypt
                0x00000000401e7dea                BF_encrypt
                0x00000000401e81dd                BF_decrypt
                0x00000000401e85d0                BF_cbc_encrypt
                0x00000000401e8b6d                BF_ofb64_encrypt
                0x00000000401e8d1c                BF_set_key
                0x00000000401e9ae7                BIO_f_base64
                0x00000000401ea11e                BIO_f_cipher
                0x00000000401ea124                BIO_set_cipher
                0x00000000401ea1bd                ERR_load_BIO_strings
                0x00000000401ea513                BIO_f_md
                0x00000000401ea519                BN_uadd
                0x00000000401ea608                BN_usub
                0x00000000401ea7c1                BN_add
                0x00000000401ea851                BN_sub
                0x00000000401ea926                bn_mul_add_words
                0x00000000401eab01                bn_mul_words
                0x00000000401eacb8                bn_sqr_words
                0x00000000401eaddf                bn_div_words
                0x00000000401eaefd                bn_add_words
                0x00000000401eafb5                bn_sub_words
                0x00000000401eb0b7                bn_mul_comba8
                0x00000000401ec48d                bn_mul_comba4
                0x00000000401ec999                bn_sqr_comba8
                0x00000000401ed80b                bn_sqr_comba4
                0x00000000401edb85                BN_BLINDING_free
                0x00000000401edbd0                BN_BLINDING_new
                0x00000000401edca5                BN_BLINDING_invert_ex
                0x00000000401edd05                BN_BLINDING_invert
                0x00000000401edd1e                BN_BLINDING_get_thread_id
                0x00000000401edd23                BN_BLINDING_set_thread_id
                0x00000000401edd28                BN_BLINDING_thread_id
                0x00000000401edd2d                BN_BLINDING_get_flags
                0x00000000401edd32                BN_BLINDING_set_flags
                0x00000000401edd37                BN_BLINDING_create_param
                0x00000000401edece                BN_BLINDING_update
                0x00000000401edfce                BN_BLINDING_convert_ex
                0x00000000401ee07b                BN_BLINDING_convert
                0x00000000401ee094                BN_CTX_init
                0x00000000401ee11b                BN_CTX_new
                0x00000000401ee1ae                BN_CTX_free
                0x00000000401ee22a                BN_CTX_start
                0x00000000401ee303                BN_CTX_end
                0x00000000401ee371                BN_CTX_get
                0x00000000401ee4c0                BN_div
                0x00000000401eee8e                ERR_load_BN_strings
                0x00000000401eef85                BN_exp
                0x00000000401ef14c                BN_mod_exp_recp
                0x00000000401ef565                BN_mod_exp_mont_consttime
                0x00000000401efb53                BN_mod_exp_mont
                0x00000000401f008b                BN_mod_exp_mont_word
                0x00000000401f04ed                BN_mod_exp
                0x00000000401f053a                BN_mod_exp_simple
                0x00000000401f095d                BN_gcd
                0x00000000401f0b67                BN_mod_inverse
                0x00000000401f15dd                BN_nnmod
                0x00000000401f1632                BN_mod_add
                0x00000000401f1660                BN_mod_add_quick
                0x00000000401f16a2                BN_mod_sub
                0x00000000401f16d0                BN_mod_sub_quick
                0x00000000401f1707                BN_mod_mul
                0x00000000401f17ad                BN_mod_sqr
                0x00000000401f17e3                BN_mod_lshift1
                0x00000000401f1811                BN_mod_lshift1_quick
                0x00000000401f1853                BN_mod_lshift_quick
                0x00000000401f1935                BN_mod_lshift
                0x00000000401f1d5c                BN_mod_mul_montgomery
                0x00000000401f1dff                BN_from_montgomery
                0x00000000401f1e72                BN_MONT_CTX_init
                0x00000000401f1eae                BN_MONT_CTX_new
                0x00000000401f1edf                BN_MONT_CTX_free
                0x00000000401f1f16                BN_MONT_CTX_set
                0x00000000401f2103                BN_MONT_CTX_copy
                0x00000000401f2169                BN_MONT_CTX_set_locked
                0x00000000401f223b                bn_sub_part_words
                0x00000000401f2466                bn_add_part_words
                0x00000000401f27cd                bn_mul_normal
                0x00000000401f28f9                bn_mul_recursive
                0x00000000401f2d8d                bn_mul_high
                0x00000000401f3218                bn_mul_part_recursive
                0x00000000401f37c3                BN_mul
                0x00000000401f3ac0                bn_mul_low_normal
                0x00000000401f3b9c                bn_mul_low_recursive
                0x00000000401f3d64                BN_GENCB_call
                0x00000000401f3db5                BN_is_prime_fasttest_ex
                0x00000000401f42e5                BN_generate_prime_ex
                0x00000000401f4871                BN_is_prime_ex
                0x00000000401f4887                BN_RECP_CTX_init
                0x00000000401f48a9                BN_RECP_CTX_new
                0x00000000401f48da                BN_RECP_CTX_free
                0x00000000401f4904                BN_RECP_CTX_set
                0x00000000401f494e                BN_reciprocal
                0x00000000401f49c8                BN_div_recp
                0x00000000401f4c72                BN_mod_mul_reciprocal
                0x00000000401f4d1b                BN_lshift1
                0x00000000401f4dcb                BN_rshift1
                0x00000000401f4e7c                BN_lshift
                0x00000000401f4fb7                BN_rshift
                0x00000000401f5121                bn_sqr_normal
                0x00000000401f5209                bn_sqr_recursive
                0x00000000401f53a6                BN_sqr
                0x00000000401f5609                BIO_s_null
                0x00000000401f560f                ERR_load_BUF_strings
                0x00000000401f5649                CAST_cfb64_encrypt
                0x00000000401f5835                CAST_ecb_encrypt
                0x00000000401f58e2                CAST_encrypt
                0x00000000401f5d01                CAST_decrypt
                0x00000000401f6116                CAST_cbc_encrypt
                0x00000000401f66b3                CAST_ofb64_encrypt
                0x00000000401f6862                CAST_set_key
                0x00000000401f71fd                DES_ede3_cfb64_encrypt
                0x00000000401f743a                DES_ede3_cfb_encrypt
                0x00000000401f7c9d                DES_cfb64_encrypt
                0x00000000401f7ebf                DES_cfb_encrypt
                0x00000000401f8522                ERR_load_COMP_strings
                0x00000000401f855c                ERR_load_CONF_strings
                0x00000000401f8596                ERR_load_CRYPTO_strings
                0x00000000401f85d0                d2i_PrivateKey
                0x00000000401f8718                d2i_AutoPrivateKey
                0x00000000401f886a                d2i_DHparams
                0x00000000401f887d                i2d_DHparams
                0x00000000401f8890                DHparams_dup
                0x00000000401f88a6                DH_check
                0x00000000401f89d1                DH_check_pub_key
                0x00000000401f8a62                ERR_load_DH_strings
                0x00000000401f8a9c                DH_generate_parameters_ex
                0x00000000401f8cc6                EVP_MD_CTX_init
                0x00000000401f8cde                EVP_MD_CTX_create
                0x00000000401f8d08                EVP_DigestInit_ex
                0x00000000401f8e04                EVP_DigestInit
                0x00000000401f8e2c                EVP_DigestUpdate
                0x00000000401f8e38                EVP_DigestFinal_ex
                0x00000000401f8ebb                EVP_MD_CTX_cleanup
                0x00000000401f8f4d                EVP_DigestFinal
                0x00000000401f8f6e                EVP_MD_CTX_copy_ex
                0x00000000401f90b3                EVP_MD_CTX_copy
                0x00000000401f90d6                EVP_Digest
                0x00000000401f9164                EVP_MD_CTX_destroy
                0x00000000401f9237                d2i_DSA_SIG
                0x00000000401f924a                i2d_DSA_SIG
                0x00000000401f925d                DSA_SIG_new
                0x00000000401f9270                DSA_SIG_free
                0x00000000401f9283                d2i_DSAPrivateKey
                0x00000000401f9296                i2d_DSAPrivateKey
                0x00000000401f92a9                d2i_DSAparams
                0x00000000401f92bc                i2d_DSAparams
                0x00000000401f92cf                d2i_DSAPublicKey
                0x00000000401f92e2                i2d_DSAPublicKey
                0x00000000401f92f5                DSAparams_dup
                0x00000000401f930b                ERR_load_DSA_strings
                0x00000000401f9345                dsa_builtin_paramgen
                0x00000000401f9beb                DSA_generate_parameters_ex
                0x00000000401f9c7b                DSA_generate_key
                0x00000000401f9e0e                DSA_set_default_method
                0x00000000401f9e16                DSA_get_default_method
                0x00000000401f9e44                DSA_set_method
                0x00000000401f9e7d                DSA_new_method
                0x00000000401f9f82                DSA_new
                0x00000000401f9f95                DSA_free
                0x00000000401fa058                DSA_up_ref
                0x00000000401fa088                DSA_size
                0x00000000401fa0e2                DSA_get_ex_new_index
                0x00000000401fa104                DSA_set_ex_data
                0x00000000401fa116                DSA_get_ex_data
                0x00000000401fa128                DSA_dup_DH
                0x00000000401fab2d                DSA_OpenSSL
                0x00000000401fab33                DSA_do_sign
                0x00000000401fab43                DSA_sign
                0x00000000401fabb4                DSA_sign_setup
                0x00000000401fabc4                DSA_do_verify
                0x00000000401fabd4                DSA_verify
                0x00000000401fac4d                ERR_load_DSO_strings
                0x00000000401fb594                EC_GROUP_get_basis_type
                0x00000000401fb5e9                EC_GROUP_get_trinomial_basis
                0x00000000401fb665                EC_GROUP_get_pentanomial_basis
                0x00000000401fb728                X9_62_PENTANOMIAL_new
                0x00000000401fb73b                X9_62_PENTANOMIAL_free
                0x00000000401fb74e                X9_62_CHARACTERISTIC_TWO_new
                0x00000000401fb761                X9_62_CHARACTERISTIC_TWO_free
                0x00000000401fb774                ECPARAMETERS_new
                0x00000000401fb787                ECPARAMETERS_free
                0x00000000401fb79a                d2i_ECPKPARAMETERS
                0x00000000401fb7ad                i2d_ECPKPARAMETERS
                0x00000000401fb7c0                ECPKPARAMETERS_new
                0x00000000401fb7d3                ECPKPARAMETERS_free
                0x00000000401fc406                d2i_EC_PRIVATEKEY
                0x00000000401fc419                i2d_EC_PRIVATEKEY
                0x00000000401fc42c                EC_PRIVATEKEY_new
                0x00000000401fc43f                EC_PRIVATEKEY_free
                0x00000000401fc452                d2i_ECPKParameters
                0x00000000401fc4f1                i2d_ECPKParameters
                0x00000000401fc57d                d2i_ECPrivateKey
                0x00000000401fc826                i2d_ECPrivateKey
                0x00000000401fcbe8                i2d_ECParameters
                0x00000000401fcc25                d2i_ECParameters
                0x00000000401fcd16                o2i_ECPublicKey
                0x00000000401fce04                i2o_ECPublicKey
                0x00000000401fcf3b                EC_GROUP_new_by_curve_name
                0x00000000401fd448                EC_get_builtin_curves
                0x00000000401fd48d                EC_GROUP_new_curve_GFp
                0x00000000401fd553                EC_GROUP_new_curve_GF2m
                0x00000000401fd5af                ERR_load_EC_strings
                0x00000000401fd5e9                EC_KEY_new
                0x00000000401fd667                EC_KEY_free
                0x00000000401fd6dd                EC_KEY_new_by_curve_name
                0x00000000401fd71c                EC_KEY_copy
                0x00000000401fd8b4                EC_KEY_dup
                0x00000000401fd8f4                EC_KEY_up_ref
                0x00000000401fd924                EC_KEY_generate_key
                0x00000000401fdad0                EC_KEY_check_key
                0x00000000401fdd8d                EC_KEY_get0_group
                0x00000000401fdd92                EC_KEY_set_group
                0x00000000401fddc8                EC_KEY_get0_private_key
                0x00000000401fddcd                EC_KEY_set_private_key
                0x00000000401fde03                EC_KEY_get0_public_key
                0x00000000401fde08                EC_KEY_set_public_key
                0x00000000401fde42                EC_KEY_get_enc_flags
                0x00000000401fde46                EC_KEY_set_enc_flags
                0x00000000401fde4a                EC_KEY_get_conv_form
                0x00000000401fde4e                EC_KEY_set_conv_form
                0x00000000401fde69                EC_KEY_get_key_method_data
                0x00000000401fded4                EC_KEY_insert_key_method_data
                0x00000000401fdf66                EC_KEY_set_asn1_flag
                0x00000000401fdf7e                EC_KEY_precompute_mult
                0x00000000401fdf9b                EC_GROUP_new
                0x00000000401fe0b3                EC_GROUP_method_of
                0x00000000401fe0b7                EC_METHOD_get_field_type
                0x00000000401fe0ba                EC_GROUP_get0_generator
                0x00000000401fe0bf                EC_GROUP_get_order
                0x00000000401fe0e7                EC_GROUP_get_cofactor
                0x00000000401fe10f                EC_GROUP_set_curve_name
                0x00000000401fe113                EC_GROUP_get_curve_name
                0x00000000401fe117                EC_GROUP_set_asn1_flag
                0x00000000401fe11b                EC_GROUP_get_asn1_flag
                0x00000000401fe11f                EC_GROUP_set_point_conversion_form
                0x00000000401fe123                EC_GROUP_get_point_conversion_form
                0x00000000401fe127                EC_GROUP_set_seed
                0x00000000401fe19b                EC_GROUP_get0_seed
                0x00000000401fe1a0                EC_GROUP_get_seed_len
                0x00000000401fe1a5                EC_GROUP_set_curve_GFp
                0x00000000401fe1e2                EC_GROUP_get_curve_GFp
                0x00000000401fe21f                EC_GROUP_set_curve_GF2m
                0x00000000401fe25c                EC_GROUP_get_curve_GF2m
                0x00000000401fe299                EC_GROUP_get_degree
                0x00000000401fe2d6                EC_GROUP_check_discriminant
                0x00000000401fe313                EC_EX_DATA_set_data
                0x00000000401fe3d4                EC_EX_DATA_get_data
                0x00000000401fe3fc                EC_EX_DATA_free_data
                0x00000000401fe452                EC_EX_DATA_clear_free_data
                0x00000000401fe4a3                EC_EX_DATA_free_all_data
                0x00000000401fe4df                EC_EX_DATA_clear_free_all_data
                0x00000000401fe51b                EC_POINT_new
                0x00000000401fe5e7                EC_POINT_free
                0x00000000401fe609                EC_GROUP_free
                0x00000000401fe662                EC_POINT_clear_free
                0x00000000401fe69e                EC_GROUP_clear_free
                0x00000000401fe71e                EC_POINT_copy
                0x00000000401fe792                EC_GROUP_copy
                0x00000000401fe9c6                EC_GROUP_dup
                0x00000000401fea11                EC_GROUP_set_generator
                0x00000000401feaed                EC_POINT_dup
                0x00000000401feb38                EC_POINT_method_of
                0x00000000401feb3c                EC_POINT_set_to_infinity
                0x00000000401feba4                EC_POINT_set_Jprojective_coordinates_GFp
                0x00000000401fec0d                EC_POINT_get_Jprojective_coordinates_GFp
                0x00000000401fec76                EC_POINT_set_affine_coordinates_GFp
                0x00000000401fece2                EC_POINT_set_affine_coordinates_GF2m
                0x00000000401fed4e                EC_POINT_get_affine_coordinates_GFp
                0x00000000401fedba                EC_POINT_get_affine_coordinates_GF2m
                0x00000000401fee26                EC_POINT_set_compressed_coordinates_GFp
                0x00000000401fee92                EC_POINT_set_compressed_coordinates_GF2m
                0x00000000401feefe                EC_POINT_point2oct
                0x00000000401fef6a                EC_POINT_oct2point
                0x00000000401fefd6                EC_POINT_add
                0x00000000401ff052                EC_POINT_dbl
                0x00000000401ff0c6                EC_POINT_invert
                0x00000000401ff133                EC_POINT_is_at_infinity
                0x00000000401ff19e                EC_POINT_is_on_curve
                0x00000000401ff209                EC_POINT_cmp
                0x00000000401ff27d                EC_GROUP_cmp
                0x00000000401ff550                EC_POINT_make_affine
                0x00000000401ff5bb                EC_POINTs_make_affine
                0x00000000401ff64a                EC_POINTs_mul
                0x00000000401ff683                EC_POINT_mul
                0x00000000401ff6b9                EC_GROUP_precompute_mult
                0x00000000401ff6e9                EC_GROUP_have_precompute_mult
                0x00000000401ffb25                ec_wNAF_mul
                0x000000004020096c                ec_wNAF_precompute_mult
                0x0000000040200f6e                ec_wNAF_have_precompute_mult
                0x0000000040200f98                EC_POINT_point2bn
                0x0000000040201055                EC_POINT_bn2point
                0x000000004020114e                EC_POINT_point2hex
                0x0000000040201258                EC_POINT_hex2point
                0x00000000402012b5                ERR_load_ECDH_strings
                0x00000000402012ef                ECDH_compute_key
                0x0000000040201365                ECDH_set_default_method
                0x000000004020136d                ECDH_get_default_method
                0x0000000040201432                ecdh_check
                0x000000004020149f                ECDH_set_method
                0x00000000402014bf                ECDH_get_ex_new_index
                0x00000000402014e1                ECDH_set_ex_data
                0x0000000040201514                ECDH_get_ex_data
                0x000000004020191f                ECDH_OpenSSL
                0x0000000040201925                ec_GFp_mont_group_init
                0x0000000040201946                ec_GFp_mont_group_finish
                0x000000004020198c                ec_GFp_mont_group_clear_finish
                0x00000000402019d2                ec_GFp_mont_group_copy
                0x0000000040201ab2                ec_GFp_mont_field_mul
                0x0000000040201afe                ec_GFp_mont_field_sqr
                0x0000000040201b47                ec_GFp_mont_field_encode
                0x0000000040201b94                ec_GFp_mont_group_set_curve
                0x0000000040201d2f                ec_GFp_mont_field_decode
                0x0000000040201d78                ec_GFp_mont_field_set_to_one
                0x0000000040201dc7                EC_GFp_mont_method
                0x0000000040201dcd                ec_GFp_nist_group_copy
                0x0000000040201de9                ec_GFp_nist_group_set_curve
                0x0000000040201fa6                ec_GFp_nist_field_mul
                0x0000000040202092                ec_GFp_nist_field_sqr
                0x000000004020217f                EC_GFp_nist_method
                0x0000000040202185                ec_GFp_simple_is_at_infinity
                0x0000000040202190                ec_GFp_simple_group_init
                0x00000000402021c6                ec_GFp_simple_point_init
                0x00000000402021f3                ec_GFp_simple_group_finish
                0x000000004020221a                ec_GFp_simple_point_finish
                0x000000004020223b                ec_GFp_simple_group_clear_finish
                0x0000000040202262                ec_GFp_simple_point_clear_finish
                0x000000004020228a                ec_GFp_simple_group_copy
                0x0000000040202307                ec_GFp_simple_point_copy
                0x0000000040202372                ec_GFp_simple_group_get_degree
                0x0000000040202384                ec_GFp_simple_group_set_curve
                0x0000000040202616                ec_GFp_simple_group_get_curve
                0x0000000040202753                ec_GFp_simple_set_Jprojective_coordinates_GFp
                0x000000004020291a                ec_GFp_simple_get_Jprojective_coordinates_GFp
                0x0000000040202a6a                ec_GFp_simple_field_sqr
                0x0000000040202a85                ec_GFp_simple_field_mul
                0x0000000040202aa3                ec_GFp_simple_group_check_discriminant
                0x0000000040202d04                ec_GFp_simple_point_set_to_infinity
                0x0000000040202d27                ec_GFp_simple_point_set_affine_coordinates
                0x0000000040202d93                ec_GFp_simple_cmp
                0x00000000402030f8                ec_GFp_simple_point_get_affine_coordinates
                0x00000000402034c8                ec_GFp_simple_invert
                0x0000000040203503                ec_GFp_simple_set_compressed_coordinates
                0x0000000040203a99                ec_GFp_simple_make_affine
                0x0000000040203c35                ec_GFp_simple_point2oct
                0x0000000040203fcd                ec_GFp_simple_is_on_curve
                0x00000000402043d0                ec_GFp_simple_oct2point
                0x0000000040204818                ec_GFp_simple_add
                0x0000000040204e62                ec_GFp_simple_dbl
                0x0000000040205437                ec_GFp_simple_points_make_affine
                0x00000000402059f8                EC_GFp_simple_method
                0x00000000402059fe                ERR_load_ECDSA_strings
                0x0000000040205a64                ECDSA_set_default_method
                0x0000000040205a6c                ECDSA_get_default_method
                0x0000000040205b31                ecdsa_check
                0x0000000040205b9e                ECDSA_set_method
                0x0000000040205bbe                ECDSA_size
                0x0000000040205c73                ECDSA_get_ex_new_index
                0x0000000040205c95                ECDSA_set_ex_data
                0x0000000040205cc8                ECDSA_get_ex_data
                0x0000000040206b44                ECDSA_OpenSSL
                0x0000000040206b4a                ECDSA_do_sign_ex
                0x0000000040206b8d                ECDSA_do_sign
                0x0000000040206ba8                ECDSA_sign_ex
                0x0000000040206c23                ECDSA_sign
                0x0000000040206c3b                ECDSA_sign_setup
                0x0000000040206c80                ECDSA_do_verify
                0x0000000040206cc8                ECDSA_verify
                0x0000000040206d41                EVP_EncodeInit
                0x0000000040206d56                EVP_EncodeBlock
                0x0000000040206e7c                EVP_EncodeUpdate
                0x0000000040206fc1                EVP_EncodeFinal
                0x0000000040207008                EVP_DecodeInit
                0x0000000040207024                EVP_DecodeBlock
                0x000000004020719e                EVP_DecodeUpdate
                0x0000000040207544                EVP_DecodeFinal
                0x0000000040207587                EVP_set_pw_prompt
                0x00000000402075b6                EVP_get_pw_prompt
                0x00000000402075cc                EVP_read_pw_string_min
                0x0000000040207690                EVP_read_pw_string
                0x00000000402076ab                EVP_BytesToKey
                0x000000004020795d                EVP_PBE_alg_add_type
                0x00000000402079fe                EVP_PBE_alg_add
                0x0000000040207a57                EVP_PBE_find
                0x0000000040207b02                EVP_PBE_CipherInit
                0x0000000040207ce1                EVP_PBE_cleanup
                0x0000000040207d06                EVP_PKCS82PKEY
                0x0000000040207e45                EVP_PKEY2PKCS8_broken
                0x0000000040207f32                EVP_PKEY2PKCS8
                0x0000000040207f45                PKCS8_set_broken
                0x0000000040207f99                EVP_PKEY_get_attr_count
                0x0000000040207fab                EVP_PKEY_get_attr_by_NID
                0x0000000040207fbd                EVP_PKEY_get_attr_by_OBJ
                0x0000000040207fcf                EVP_PKEY_get_attr
                0x0000000040207fe1                EVP_PKEY_delete_attr
                0x0000000040207ff3                EVP_PKEY_add1_attr
                0x000000004020800e                EVP_PKEY_add1_attr_by_OBJ
                0x0000000040208029                EVP_PKEY_add1_attr_by_NID
                0x0000000040208044                EVP_PKEY_add1_attr_by_txt
                0x000000004020805f                HMAC_Init_ex
                0x000000004020826c                HMAC_Update
                0x000000004020827e                HMAC_Final
                0x00000000402082f3                HMAC_CTX_init
                0x0000000040208314                HMAC_Init
                0x000000004020835d                HMAC_CTX_copy
                0x00000000402083d5                HMAC_CTX_cleanup
                0x0000000040208408                HMAC
                0x00000000402084b1                HMAC_CTX_set_flags
                0x00000000402084e3                i2d_PrivateKey
                0x0000000040208e9f                RAND_SSLeay
                0x0000000040208ec8                d2i_NETSCAPE_CERT_SEQUENCE
                0x0000000040208edb                i2d_NETSCAPE_CERT_SEQUENCE
                0x0000000040208eee                NETSCAPE_CERT_SEQUENCE_new
                0x0000000040208f01                NETSCAPE_CERT_SEQUENCE_free
                0x0000000040208f14                OPENSSL_gmtime
                0x0000000040208f1a                OPENSSL_gmtime_adj
                0x00000000402091d9                PKCS12_PBE_add
                0x00000000402091da                PKCS12_PBE_keyivgen
                0x00000000402093e9                PKCS12_key_gen_uni
                0x00000000402098ba                PKCS12_key_gen_asc
                0x0000000040209987                PKCS8_decrypt
                0x00000000402099ac                OPENSSL_asc2uni
                0x0000000040209a41                OPENSSL_uni2asc
                0x0000000040209ab3                i2d_PKCS12_bio
                0x0000000040209acc                d2i_PKCS12_bio
                0x0000000040209ae5                PKCS12_x5092certbag
                0x0000000040209b02                PKCS12_x509crl2certbag
                0x0000000040209b1f                PKCS12_certbag2x509
                0x0000000040209b69                PKCS12_certbag2x509crl
                0x0000000040209bb3                PKCS5_PBE_add
                0x0000000040209bb4                PKCS5_PBE_keyivgen
                0x0000000040209eab                PKCS5_PBKDF2_HMAC
                0x000000004020a196                PKCS5_PBKDF2_HMAC_SHA1
                0x000000004020a1e5                PKCS5_v2_PBE_keyivgen
                0x000000004020a618                d2i_PBEPARAM
                0x000000004020a62b                i2d_PBEPARAM
                0x000000004020a63e                PBEPARAM_new
                0x000000004020a651                PBEPARAM_free
                0x000000004020a664                PKCS5_pbe_set0_algor
                0x000000004020a814                PKCS5_pbe_set
                0x000000004020a887                d2i_PBE2PARAM
                0x000000004020a89a                i2d_PBE2PARAM
                0x000000004020a8ad                PBE2PARAM_new
                0x000000004020a8c0                PBE2PARAM_free
                0x000000004020a8d3                d2i_PBKDF2PARAM
                0x000000004020a8e6                i2d_PBKDF2PARAM
                0x000000004020a8f9                PBKDF2PARAM_new
                0x000000004020a90c                PBKDF2PARAM_free
                0x000000004020a91f                PKCS5_pbe2_set_iv
                0x000000004020adcd                PKCS5_pbe2_set
                0x000000004020ae1c                d2i_PKCS8_PRIV_KEY_INFO
                0x000000004020ae2f                i2d_PKCS8_PRIV_KEY_INFO
                0x000000004020ae42                PKCS8_PRIV_KEY_INFO_new
                0x000000004020ae55                PKCS8_PRIV_KEY_INFO_free
                0x000000004020ae68                PKCS8_pkey_set0
                0x000000004020af31                PKCS8_pkey_get0
                0x000000004020afbf                EVP_SignFinal
                0x000000004020b146                EVP_VerifyFinal
                0x000000004020b2c5                policy_cache_free
                0x000000004020b2f9                policy_cache_set
                0x000000004020b669                policy_cache_find_data
                0x000000004020b69f                policy_data_free
                0x000000004020b6d9                policy_data_new
                0x000000004020b7b1                policy_cache_set_mapping
                0x000000004020b9ef                X509_policy_tree_free
                0x000000004020ba93                X509_policy_check
                0x000000004020c44b                d2i_PKCS8PrivateKey_bio
                0x000000004020c53b                PEM_read_bio_PKCS8
                0x000000004020c55f                PEM_write_bio_PKCS8
                0x000000004020c58f                PEM_read_bio_PKCS8_PRIV_KEY_INFO
                0x000000004020c5b3                PEM_write_bio_PKCS8_PRIV_KEY_INFO
                0x000000004020c7ac                PEM_write_bio_PKCS8PrivateKey_nid
                0x000000004020c7d2                PEM_write_bio_PKCS8PrivateKey
                0x000000004020c7f8                i2d_PKCS8PrivateKey_bio
                0x000000004020c81e                i2d_PKCS8PrivateKey_nid_bio
                0x000000004020c844                PKCS7_add_attrib_smimecap
                0x000000004020c8ae                PKCS7_get_smimecap
                0x000000004020c8f6                PKCS7_simple_smimecap
                0x000000004020ca25                PKCS7_add_attrib_content_type
                0x000000004020ca7a                PKCS7_add0_attrib_signing_time
                0x000000004020cad7                PKCS7_add1_attrib_digest
                0x000000004020e495                RSA_PKCS1_SSLeay
                0x000000004020e49b                RSA_padding_add_none
                0x000000004020e508                RSA_padding_check_none
                0x000000004020e577                PKCS1_MGF1
                0x000000004020e748                RSA_padding_check_PKCS1_OAEP
                0x000000004020ea01                RSA_padding_add_PKCS1_OAEP
                0x000000004020ec13                RSA_padding_add_PKCS1_type_1
                0x000000004020ec95                RSA_padding_check_PKCS1_type_1
                0x000000004020edc0                RSA_padding_add_PKCS1_type_2
                0x000000004020ee85                RSA_padding_check_PKCS1_type_2
                0x000000004020ef7e                RSA_verify_PKCS1_PSS
                0x000000004020f2e6                RSA_padding_add_PKCS1_PSS
                0x000000004020f66b                RSA_padding_add_SSLv23
                0x000000004020f746                RSA_padding_check_SSLv23
                0x000000004020f8a0                RSA_padding_add_X931
                0x000000004020f93e                RSA_padding_check_X931
                0x000000004020fa40                RSA_X931_hash_id
                0x000000004020fa82                ASN1_bn_print
                0x000000004020fc84                X509_ocspid_print
                0x000000004020fe0f                X509_signature_print
                0x000000004020ff05                ASN1_STRING_print
                0x000000004020ffd1                ASN1_GENERALIZEDTIME_print
                0x00000000402101da                ASN1_UTCTIME_print
                0x000000004021032b                ASN1_TIME_print
                0x0000000040210363                X509_print_ex
                0x000000004021091b                X509_print
                0x0000000040210933                X509_NAME_print
                0x0000000040210a22                X509_CERT_AUX_print
                0x0000000040210f82                UI_free
                0x0000000040210fb5                UI_add_input_string
                0x0000000040210fd9                UI_dup_input_string
                0x0000000040211059                UI_add_verify_string
                0x000000004021107f                UI_dup_verify_string
                0x0000000040211101                UI_add_input_boolean
                0x000000004021111d                UI_dup_input_boolean
                0x000000004021129b                UI_add_info_string
                0x00000000402112c5                UI_dup_info_string
                0x0000000040211332                UI_add_error_string
                0x000000004021135c                UI_dup_error_string
                0x00000000402113c9                UI_construct_prompt
                0x00000000402114ec                UI_add_user_data
                0x00000000402114f5                UI_get0_user_data
                0x00000000402114fa                UI_process
                0x000000004021161a                UI_ctrl
                0x00000000402116a5                UI_get_ex_new_index
                0x00000000402116c7                UI_set_ex_data
                0x00000000402116d9                UI_get_ex_data
                0x00000000402116eb                UI_set_default_method
                0x00000000402116f3                UI_get_default_method
                0x0000000040211721                UI_new_method
                0x00000000402117ab                UI_new
                0x00000000402117be                UI_get_method
                0x00000000402117c2                UI_set_method
                0x00000000402117c9                UI_create_method
                0x0000000040211815                UI_destroy_method
                0x0000000040211832                UI_method_set_opener
                0x0000000040211847                UI_method_set_writer
                0x000000004021185c                UI_method_set_flusher
                0x0000000040211871                UI_method_set_reader
                0x0000000040211886                UI_method_set_closer
                0x000000004021189b                UI_method_set_prompt_constructor
                0x00000000402118b0                UI_method_get_opener
                0x00000000402118c0                UI_method_get_writer
                0x00000000402118d0                UI_method_get_flusher
                0x00000000402118e0                UI_method_get_reader
                0x00000000402118f0                UI_method_get_closer
                0x0000000040211900                UI_method_get_prompt_constructor
                0x0000000040211910                UI_get_string_type
                0x000000004021191e                UI_get_input_flags
                0x000000004021192d                UI_get0_output_string
                0x000000004021193b                UI_get0_action_string
                0x000000004021195c                UI_get0_result_string
                0x000000004021197d                UI_get0_result
                0x00000000402119ff                UI_get0_test_string
                0x0000000040211a17                UI_get_result_minsize
                0x0000000040211a36                UI_get_result_maxsize
                0x0000000040211a55                UI_set_result
                0x0000000040211eb4                UI_OpenSSL
                0x0000000040211eba                d2i_AUTHORITY_KEYID
                0x0000000040211ecd                i2d_AUTHORITY_KEYID
                0x0000000040211ee0                AUTHORITY_KEYID_new
                0x0000000040211ef3                AUTHORITY_KEYID_free
                0x0000000040212189                POLICYINFO_free
                0x000000004021219c                d2i_CERTIFICATEPOLICIES
                0x00000000402121af                i2d_CERTIFICATEPOLICIES
                0x00000000402121c2                CERTIFICATEPOLICIES_new
                0x00000000402121d5                CERTIFICATEPOLICIES_free
                0x00000000402121e8                d2i_POLICYINFO
                0x00000000402121fb                i2d_POLICYINFO
                0x000000004021220e                POLICYINFO_new
                0x0000000040212221                d2i_POLICYQUALINFO
                0x0000000040212234                i2d_POLICYQUALINFO
                0x0000000040212247                POLICYQUALINFO_new
                0x000000004021225a                POLICYQUALINFO_free
                0x000000004021226d                d2i_USERNOTICE
                0x0000000040212280                i2d_USERNOTICE
                0x0000000040212293                USERNOTICE_new
                0x00000000402122a6                USERNOTICE_free
                0x00000000402122b9                d2i_NOTICEREF
                0x00000000402122cc                i2d_NOTICEREF
                0x00000000402122df                NOTICEREF_new
                0x0000000040212c90                NOTICEREF_free
                0x0000000040212ca3                X509_POLICY_NODE_print
                0x000000004021329d                DIST_POINT_free
                0x00000000402132b0                d2i_DIST_POINT_NAME
                0x00000000402132c3                i2d_DIST_POINT_NAME
                0x00000000402132d6                DIST_POINT_NAME_new
                0x00000000402134e0                DIST_POINT_NAME_free
                0x00000000402134f3                d2i_DIST_POINT
                0x0000000040213506                i2d_DIST_POINT
                0x0000000040213519                DIST_POINT_new
                0x00000000402137a3                d2i_CRL_DIST_POINTS
                0x00000000402137b6                i2d_CRL_DIST_POINTS
                0x00000000402137c9                CRL_DIST_POINTS_new
                0x00000000402137dc                CRL_DIST_POINTS_free
                0x00000000402137ef                d2i_ISSUING_DIST_POINT
                0x0000000040213802                i2d_ISSUING_DIST_POINT
                0x0000000040213815                ISSUING_DIST_POINT_new
                0x0000000040213828                ISSUING_DIST_POINT_free
                0x00000000402139f9                DIST_POINT_set_dpname
                0x0000000040213ae5                d2i_GENERAL_NAME
                0x0000000040213af8                i2d_GENERAL_NAME
                0x0000000040213b0b                d2i_OTHERNAME
                0x0000000040213b1e                i2d_OTHERNAME
                0x0000000040213b31                OTHERNAME_new
                0x0000000040213b44                OTHERNAME_free
                0x0000000040213b57                d2i_EDIPARTYNAME
                0x0000000040213b6a                i2d_EDIPARTYNAME
                0x0000000040213b7d                EDIPARTYNAME_new
                0x0000000040213b90                EDIPARTYNAME_free
                0x0000000040213ba3                GENERAL_NAME_new
                0x0000000040213bb6                GENERAL_NAME_free
                0x0000000040213bc9                d2i_GENERAL_NAMES
                0x0000000040213bdc                i2d_GENERAL_NAMES
                0x0000000040213bef                GENERAL_NAMES_new
                0x0000000040213c02                GENERAL_NAMES_free
                0x0000000040213c15                GENERAL_NAME_dup
                0x0000000040213c30                OTHERNAME_cmp
                0x0000000040213c78                GENERAL_NAME_cmp
                0x0000000040213d09                GENERAL_NAME_set0_value
                0x0000000040213d3c                GENERAL_NAME_get0_value
                0x0000000040213d77                GENERAL_NAME_set0_othername
                0x0000000040213db0                GENERAL_NAME_get0_otherName
                0x00000000402143bd                GENERAL_SUBTREE_new
                0x00000000402143d0                GENERAL_SUBTREE_free
                0x00000000402143e3                NAME_CONSTRAINTS_new
                0x00000000402143f6                NAME_CONSTRAINTS_free
                0x00000000402145df                NAME_CONSTRAINTS_check
                0x000000004021470c                POLICY_CONSTRAINTS_new
                0x000000004021471f                POLICY_CONSTRAINTS_free
                0x00000000402148f4                POLICY_MAPPING_free
                0x0000000040214907                POLICY_MAPPING_new
                0x0000000040214bb9                X509V3_EXT_val_prn
                0x0000000040214ccf                X509V3_EXT_print
                0x0000000040214ea2                X509V3_extensions_print
                0x00000000402152fe                X509_PURPOSE_get_count
                0x0000000040215321                X509_PURPOSE_get0
                0x000000004021535a                X509_PURPOSE_get_by_sname
                0x000000004021539d                X509_PURPOSE_get_by_id
                0x00000000402153d5                X509_PURPOSE_set
                0x0000000040215421                X509_PURPOSE_add
                0x00000000402155fd                X509_PURPOSE_cleanup
                0x0000000040215641                X509_PURPOSE_get_id
                0x0000000040215644                X509_PURPOSE_get0_name
                0x0000000040215649                X509_PURPOSE_get0_sname
                0x000000004021564e                X509_PURPOSE_get_trust
                0x0000000040215652                X509_supported_extension
                0x0000000040215bb4                X509_check_purpose
                0x0000000040215c30                X509_check_ca
                0x0000000040215c80                X509_check_akid
                0x0000000040215d52                X509_check_issued
                0x0000000040215e9f                X509V3_conf_free
                0x0000000040215f86                X509V3_add_value
                0x000000004021609e                X509V3_add_value_uchar
                0x00000000402160ac                X509V3_add_value_bool
                0x00000000402160cf                X509V3_add_value_bool_nf
                0x00000000402160ec                i2s_ASN1_ENUMERATED
                0x0000000040216157                i2s_ASN1_INTEGER
                0x00000000402161c2                s2i_ASN1_INTEGER
                0x0000000040216335                X509V3_add_value_int
                0x000000004021638b                X509V3_get_value_bool
                0x00000000402164e7                X509V3_get_value_int
                0x0000000040216549                X509V3_parse_list
                0x000000004021675c                hex_to_string
                0x0000000040216806                string_to_hex
                0x00000000402169ad                name_cmp
                0x00000000402169f2                X509_email_free
                0x0000000040216b5d                X509_get1_email
                0x0000000040216baa                X509_REQ_get1_email
                0x0000000040216c08                X509_get1_ocsp
                0x0000000040216c9b                a2i_ipadd
                0x0000000040216de8                a2i_IPADDRESS
                0x0000000040216e3b                a2i_IPADDRESS_NC
                0x0000000040216f00                X509V3_NAME_from_section
                0x0000000040216fca                X509at_get_attr_count
                0x0000000040216fd8                X509at_get_attr_by_OBJ
                0x0000000040217047                X509at_get_attr_by_NID
                0x0000000040217079                X509at_get_attr
                0x00000000402170b3                X509at_delete_attr
                0x00000000402170ed                X509at_add1_attr
                0x00000000402171ce                X509_ATTRIBUTE_set1_object
                0x000000004021720e                X509_ATTRIBUTE_set1_data
                0x00000000402173ab                X509_ATTRIBUTE_create_by_OBJ
                0x00000000402174a2                X509at_add1_attr_by_OBJ
                0x00000000402174e2                X509_ATTRIBUTE_create_by_NID
                0x000000004021755b                X509at_add1_attr_by_NID
                0x000000004021759b                X509_ATTRIBUTE_create_by_txt
                0x0000000040217639                X509at_add1_attr_by_txt
                0x0000000040217679                X509_ATTRIBUTE_count
                0x000000004021769d                X509_ATTRIBUTE_get0_object
                0x00000000402176aa                X509_ATTRIBUTE_get0_type
                0x00000000402176ed                X509_ATTRIBUTE_get0_data
                0x0000000040217742                X509at_get0_data_by_OBJ
                0x00000000402177ce                X509_CRL_get_ext_count
                0x00000000402177e3                X509_CRL_get_ext_by_NID
                0x00000000402177f8                X509_CRL_get_ext_by_OBJ
                0x000000004021780d                X509_CRL_get_ext_by_critical
                0x0000000040217822                X509_CRL_get_ext
                0x0000000040217837                X509_CRL_delete_ext
                0x000000004021784c                X509_CRL_get_ext_d2i
                0x0000000040217861                X509_CRL_add1_ext_i2d
                0x0000000040217876                X509_CRL_add_ext
                0x0000000040217894                X509_get_ext_count
                0x00000000402178a9                X509_get_ext_by_NID
                0x00000000402178be                X509_get_ext_by_OBJ
                0x00000000402178d3                X509_get_ext_by_critical
                0x00000000402178e8                X509_get_ext
                0x00000000402178fd                X509_delete_ext
                0x0000000040217912                X509_add_ext
                0x0000000040217930                X509_get_ext_d2i
                0x0000000040217945                X509_add1_ext_i2d
                0x000000004021795a                X509_REVOKED_get_ext_count
                0x000000004021796c                X509_REVOKED_get_ext_by_NID
                0x000000004021797e                X509_REVOKED_get_ext_by_OBJ
                0x0000000040217990                X509_REVOKED_get_ext_by_critical
                0x00000000402179a2                X509_REVOKED_get_ext
                0x00000000402179b4                X509_REVOKED_delete_ext
                0x00000000402179c6                X509_REVOKED_add_ext
                0x00000000402179e1                X509_REVOKED_get_ext_d2i
                0x00000000402179f3                X509_REVOKED_add1_ext_i2d
                0x0000000040217b78                X509_LOOKUP_new
                0x0000000040217be9                X509_LOOKUP_free
                0x0000000040217c11                X509_LOOKUP_init
                0x0000000040217c3a                X509_LOOKUP_shutdown
                0x0000000040217c63                X509_LOOKUP_ctrl
                0x0000000040217c8d                X509_LOOKUP_by_subject
                0x0000000040217cc3                X509_LOOKUP_by_issuer_serial
                0x0000000040217cec                X509_LOOKUP_by_fingerprint
                0x0000000040217d15                X509_LOOKUP_by_alias
                0x0000000040217d3e                X509_STORE_new
                0x0000000040217e27                X509_STORE_free
                0x0000000040217ebd                X509_STORE_add_lookup
                0x0000000040217f37                X509_OBJECT_up_ref_count
                0x0000000040217f94                X509_OBJECT_free_contents
                0x0000000040217fbf                X509_OBJECT_idx_by_subject
                0x0000000040217fd2                X509_OBJECT_retrieve_by_subject
                0x0000000040217ff3                X509_STORE_get_by_subject
                0x00000000402180f0                X509_STORE_get1_certs
                0x00000000402182b2                X509_STORE_get1_crls
                0x000000004021846c                X509_OBJECT_retrieve_match
                0x0000000040218551                X509_STORE_add_cert
                0x000000004021864f                X509_STORE_add_crl
                0x000000004021874d                X509_STORE_CTX_get1_issuer
                0x00000000402188da                X509_STORE_set_flags
                0x00000000402188ec                X509_STORE_set_depth
                0x0000000040218903                X509_STORE_set_purpose
                0x0000000040218915                X509_STORE_set_trust
                0x0000000040218927                X509_STORE_set1_param
                0x0000000040218939                X509_STORE_set_verify_cb
                0x000000004021893e                X509_to_X509_REQ
                0x0000000040218a33                X509_REQ_get_pubkey
                0x0000000040218a57                X509_REQ_check_private_key
                0x0000000040218b71                X509_REQ_extension_nid
                0x0000000040218b98                X509_REQ_get_extension_nids
                0x0000000040218ba0                X509_REQ_set_extension_nids
                0x0000000040218ba8                X509_REQ_add_extensions_nid
                0x0000000040218c98                X509_REQ_add_extensions
                0x0000000040218cab                X509_REQ_get_attr_count
                0x0000000040218cc0                X509_REQ_get_attr_by_NID
                0x0000000040218cd5                X509_REQ_get_attr_by_OBJ
                0x0000000040218cea                X509_REQ_get_attr
                0x0000000040218cff                X509_REQ_get_extensions
                0x0000000040218dd1                X509_REQ_delete_attr
                0x0000000040218de6                X509_REQ_add1_attr
                0x0000000040218e04                X509_REQ_add1_attr_by_OBJ
                0x0000000040218e22                X509_REQ_add1_attr_by_NID
                0x0000000040218e40                X509_REQ_add1_attr_by_txt
                0x0000000040218fb0                X509_TRUST_set_default
                0x0000000040218fbf                X509_TRUST_get_count
                0x0000000040218fe2                X509_TRUST_get0
                0x0000000040219019                X509_TRUST_get_by_id
                0x0000000040219054                X509_check_trust
                0x000000004021909f                X509_TRUST_set
                0x00000000402190eb                X509_TRUST_add
                0x00000000402192bd                X509_TRUST_cleanup
                0x0000000040219301                X509_TRUST_get_flags
                0x0000000040219305                X509_TRUST_get0_name
                0x000000004021930a                X509_TRUST_get_trust
                0x000000004021930d                X509v3_get_ext_count
                0x0000000040219326                X509v3_get_ext_by_OBJ
                0x0000000040219395                X509v3_get_ext_by_NID
                0x00000000402193c7                X509v3_get_ext_by_critical
                0x000000004021943b                X509v3_get_ext
                0x0000000040219475                X509v3_delete_ext
                0x00000000402194af                X509v3_add_ext
                0x00000000402195c8                X509_EXTENSION_set_object
                0x0000000040219608                X509_EXTENSION_set_critical
                0x0000000040219623                X509_EXTENSION_set_data
                0x0000000040219651                X509_EXTENSION_create_by_OBJ
                0x000000004021972a                X509_EXTENSION_create_by_NID
                0x00000000402197a1                X509_EXTENSION_get_object
                0x00000000402197ae                X509_EXTENSION_get_data
                0x00000000402197bc                X509_EXTENSION_get_critical
                0x00000000402197d2                X509_NAME_entry_count
                0x00000000402197ee                X509_NAME_get_index_by_OBJ
                0x0000000040219860                X509_NAME_get_index_by_NID
                0x0000000040219892                X509_NAME_get_entry
                0x00000000402198cf                X509_NAME_get_text_by_OBJ
                0x0000000040219937                X509_NAME_get_text_by_NID
                0x000000004021996d                X509_NAME_delete_entry
                0x0000000040219a1e                X509_NAME_add_entry
                0x0000000040219b99                X509_NAME_ENTRY_set_object
                0x0000000040219bf8                X509_NAME_ENTRY_set_data
                0x0000000040219cc8                X509_NAME_ENTRY_create_by_OBJ
                0x0000000040219d8b                X509_NAME_add_entry_by_OBJ
                0x0000000040219ddb                X509_NAME_ENTRY_create_by_txt
                0x0000000040219e79                X509_NAME_add_entry_by_txt
                0x0000000040219ec9                X509_NAME_ENTRY_create_by_NID
                0x0000000040219f3b                X509_NAME_add_entry_by_NID
                0x0000000040219f8b                X509_NAME_ENTRY_get_object
                0x0000000040219f98                X509_NAME_ENTRY_get_data
                0x0000000040219fa6                X509_REQ_set_version
                0x0000000040219fc6                X509_REQ_set_subject_name
                0x0000000040219ff1                X509_REQ_set_pubkey
                0x000000004021a01c                d2i_X509_VAL
                0x000000004021a02f                i2d_X509_VAL
                0x000000004021a042                X509_VAL_new
                0x000000004021a055                X509_VAL_free
                0x000000004021a068                CRYPTO_cbc128_encrypt
                0x000000004021a1be                CRYPTO_cbc128_decrypt
                0x000000004021a4d9                CRYPTO_cfb128_encrypt
                0x000000004021a713                CRYPTO_cfb128_1_encrypt
                0x000000004021a7e2                CRYPTO_cfb128_8_encrypt
                0x000000004021a84b                CRYPTO_ofb128_encrypt
                0x000000004021a966                i2d_ASN1_BOOLEAN
                0x000000004021a9da                d2i_ASN1_BOOLEAN
                0x000000004021acc8                ASN1_mbstring_ncopy
                0x000000004021b238                ASN1_mbstring_copy
                0x000000004021b24e                ASN1_PRINTABLE_type
                0x000000004021b302                ASN1_UNIVERSALSTRING_to_string
                0x000000004021b3be                ASN1_STRING_set_default_mask
                0x000000004021b3c6                ASN1_STRING_get_default_mask
                0x000000004021b3ce                ASN1_STRING_set_default_mask_asc
                0x000000004021b491                ASN1_STRING_TABLE_get
                0x000000004021b4fc                ASN1_STRING_set_by_NID
                0x000000004021b5a4                ASN1_STRING_TABLE_add
                0x000000004021b6c7                ASN1_STRING_TABLE_cleanup
                0x000000004021b6f2                ASN1_seq_unpack
                0x000000004021b755                ASN1_seq_pack
                0x000000004021b83b                ASN1_unpack_string
                0x000000004021b88d                ASN1_pack_string
                0x000000004021b99b                ASN1_item_pack
                0x000000004021ba9f                ASN1_item_unpack
                0x000000004021baf4                BN_mod_exp2_mont
                0x000000004021c28e                BN_kronecker
                0x000000004021c567                BN_get0_nist_prime_192
                0x000000004021c56d                BN_get0_nist_prime_224
                0x000000004021c573                BN_get0_nist_prime_256
                0x000000004021c579                BN_get0_nist_prime_384
                0x000000004021c57f                BN_get0_nist_prime_521
                0x000000004021c585                BN_nist_mod_192
                0x000000004021c800                BN_nist_mod_224
                0x000000004021cb60                BN_nist_mod_256
                0x000000004021d045                BN_nist_mod_384
                0x000000004021d693                BN_nist_mod_521
                0x000000004021d865                BN_mod_sqrt
                0x000000004021e232                CONF_modules_load
                0x000000004021e6be                CONF_modules_finish
                0x000000004021e72d                CONF_modules_unload
                0x000000004021e7d4                CONF_module_add
                0x000000004021e7f9                CONF_modules_free
                0x000000004021e811                CONF_imodule_get_name
                0x000000004021e816                CONF_imodule_get_value
                0x000000004021e81b                CONF_imodule_get_usr_data
                0x000000004021e820                CONF_imodule_set_usr_data
                0x000000004021e825                CONF_imodule_get_module
                0x000000004021e829                CONF_imodule_get_flags
                0x000000004021e82e                CONF_imodule_set_flags
                0x000000004021e833                CONF_module_get_usr_data
                0x000000004021e838                CONF_module_set_usr_data
                0x000000004021e83d                CONF_get1_default_config_file
                0x000000004021e8b9                CONF_modules_load_file
                0x000000004021e976                CONF_parse_list
                0x000000004021ea7e                DSO_set_default_method
                0x000000004021ea86                DSO_get_default_method
                0x000000004021ea8e                DSO_get_method
                0x000000004021ea92                DSO_set_method
                0x000000004021ea99                DSO_new_method
                0x000000004021eb82                DSO_new
                0x000000004021eb95                DSO_free
                0x000000004021eca3                DSO_flags
                0x000000004021ecb1                DSO_up_ref
                0x000000004021ed08                DSO_bind_var
                0x000000004021ed9b                DSO_bind_func
                0x000000004021ee29                DSO_ctrl
                0x000000004021eec3                DSO_set_name_converter
                0x000000004021ef0b                DSO_get_filename
                0x000000004021ef3e                DSO_set_filename
                0x000000004021f022                DSO_load
                0x000000004021f1e4                DSO_merge
                0x000000004021f24a                DSO_convert_filename
                0x000000004021f363                DSO_get_loaded_filename
                0x000000004021f396                DSO_pathbyaddr
                0x000000004021f3f5                DSO_global_lookup
                0x000000004021f442                DSO_METHOD_openssl
                0x000000004021f450                ec_GF2m_simple_is_at_infinity
                0x000000004021f45b                ec_GF2m_simple_points_make_affine
                0x000000004021f4af                ec_GF2m_simple_group_init
                0x000000004021f4db                ec_GF2m_simple_point_init
                0x000000004021f501                ec_GF2m_simple_group_finish
                0x000000004021f528                ec_GF2m_simple_point_finish
                0x000000004021f549                ec_GF2m_simple_group_clear_finish
                0x000000004021f5ac                ec_GF2m_simple_point_clear_finish
                0x000000004021f5d4                ec_GF2m_simple_group_get_curve
                0x000000004021f645                ec_GF2m_simple_point_copy
                0x000000004021f6b0                ec_GF2m_simple_group_copy
                0x000000004021f854                ec_GF2m_simple_group_set_curve
                0x000000004021f9ea                ec_GF2m_simple_group_get_degree
                0x000000004021f9ff                ec_GF2m_simple_group_check_discriminant
                0x000000004021fac0                ec_GF2m_simple_point_set_to_infinity
                0x000000004021fae3                ec_GF2m_simple_point_set_affine_coordinates
                0x000000004021fbba                ec_GF2m_simple_point_get_affine_coordinates
                0x000000004021fc95                ec_GF2m_simple_is_on_curve
                0x000000004021fe48                ec_GF2m_simple_set_compressed_coordinates
                0x00000000402201a6                ec_GF2m_simple_cmp
                0x0000000040220371                ec_GF2m_simple_make_affine
                0x0000000040220490                ec_GF2m_simple_point2oct
                0x0000000040220859                ec_GF2m_simple_oct2point
                0x0000000040220ce6                ec_GF2m_simple_add
                0x00000000402211ea                ec_GF2m_simple_dbl
                0x00000000402211fe                ec_GF2m_simple_invert
                0x000000004022124a                ec_GF2m_simple_field_mul
                0x000000004022126b                ec_GF2m_simple_field_sqr
                0x0000000040221289                ec_GF2m_simple_field_div
                0x00000000402212a7                EC_GF2m_simple_method
                0x00000000402212ad                d2i_ECDSA_SIG
                0x00000000402212c0                i2d_ECDSA_SIG
                0x00000000402212d3                ECDSA_SIG_new
                0x00000000402212e6                ECDSA_SIG_free
                0x0000000040221312                ERR_print_errors_cb
                0x00000000402213db                ERR_print_errors
                0x00000000402213f1                PKCS12_item_pack_safebag
                0x00000000402214c3                PKCS12_MAKE_KEYBAG
                0x0000000040221515                PKCS12_MAKE_SHKEYBAG
                0x00000000402215ef                PKCS12_pack_p7data
                0x00000000402216b1                PKCS12_unpack_p7data
                0x00000000402216f9                PKCS12_pack_p7encdata
                0x000000004022189b                PKCS12_unpack_p7encdata
                0x00000000402218e6                PKCS12_decrypt_skey
                0x00000000402218f8                PKCS12_pack_authsafes
                0x0000000040221922                PKCS12_unpack_authsafes
                0x0000000040221972                d2i_PKCS12
                0x0000000040221985                i2d_PKCS12
                0x0000000040221998                PKCS12_new
                0x00000000402219ab                PKCS12_free
                0x00000000402219be                d2i_PKCS12_MAC_DATA
                0x00000000402219d1                i2d_PKCS12_MAC_DATA
                0x00000000402219e4                PKCS12_MAC_DATA_new
                0x00000000402219f7                PKCS12_MAC_DATA_free
                0x0000000040221a0a                d2i_PKCS12_BAGS
                0x0000000040221a1d                i2d_PKCS12_BAGS
                0x0000000040221a30                PKCS12_BAGS_new
                0x0000000040221a43                PKCS12_BAGS_free
                0x0000000040221a56                d2i_PKCS12_SAFEBAG
                0x0000000040221a69                i2d_PKCS12_SAFEBAG
                0x0000000040221a7c                PKCS12_SAFEBAG_new
                0x0000000040221a8f                PKCS12_SAFEBAG_free
                0x0000000040221aa2                PKCS12_pbe_crypt
                0x0000000040221c10                PKCS12_item_decrypt_d2i
                0x0000000040221cde                PKCS12_item_i2d_encrypt
                0x0000000040221e0d                PKCS8_encrypt
                0x0000000040221f3a                X509_policy_tree_level_count
                0x0000000040221f49                X509_policy_tree_get0_level
                0x0000000040221f6e                X509_policy_tree_get0_policies
                0x0000000040221f7c                X509_policy_tree_get0_user_policies
                0x0000000040221f95                X509_policy_level_node_count
                0x0000000040221fc1                X509_policy_level_get0_node
                0x0000000040221fed                X509_policy_node_get0_policy
                0x0000000040221ffe                X509_policy_node_get0_qualifiers
                0x000000004022200f                X509_policy_node_get0_parent
                0x000000004022203f                policy_node_cmp_new
                0x0000000040222052                tree_find_sk
                0x000000004022208f                level_find_node
                0x00000000402220f3                level_add_node
                0x00000000402221cb                policy_node_free
                0x00000000402221d9                policy_node_match
                0x00000000402223c8                i2v_GENERAL_NAME
                0x00000000402225eb                i2v_GENERAL_NAMES
                0x000000004022264c                GENERAL_NAME_print
                0x00000000402227d7                a2i_GENERAL_NAME
                0x0000000040222b5e                v2i_GENERAL_NAME_ex
                0x0000000040222cbb                v2i_GENERAL_NAME
                0x0000000040222ff1                v2i_GENERAL_NAMES
                0x00000000402230d5                d2i_BASIC_CONSTRAINTS
                0x00000000402230e8                i2d_BASIC_CONSTRAINTS
                0x00000000402230fb                BASIC_CONSTRAINTS_new
                0x000000004022310e                BASIC_CONSTRAINTS_free
                0x0000000040223864                X509V3_EXT_nconf
                0x000000004022392d                X509V3_EXT_nconf_nid
                0x00000000402239a9                X509V3_EXT_i2d
                0x0000000040223a0a                X509V3_EXT_add_nconf_sk
                0x0000000040223aad                X509V3_EXT_add_nconf
                0x0000000040223ac7                X509V3_EXT_CRL_add_nconf
                0x0000000040223ae1                X509V3_EXT_REQ_add_nconf
                0x0000000040223b3d                X509V3_get_string
                0x0000000040223b8b                X509V3_get_section
                0x0000000040223bda                X509V3_string_free
                0x0000000040223bfc                X509V3_section_free
                0x0000000040223c1e                X509V3_set_nconf
                0x0000000040223c2b                X509V3_set_ctx
                0x0000000040223c3f                X509V3_EXT_conf
                0x0000000040223c79                X509V3_EXT_conf_nid
                0x0000000040223cb1                X509V3_set_conf_lhash
                0x0000000040223cbe                X509V3_EXT_add_conf
                0x0000000040223cf8                X509V3_EXT_CRL_add_conf
                0x0000000040223d32                X509V3_EXT_REQ_add_conf
                0x0000000040223ea9                ACCESS_DESCRIPTION_free
                0x0000000040223ebc                d2i_ACCESS_DESCRIPTION
                0x0000000040223ecf                i2d_ACCESS_DESCRIPTION
                0x0000000040223ee2                ACCESS_DESCRIPTION_new
                0x000000004022411b                d2i_AUTHORITY_INFO_ACCESS
                0x000000004022412e                i2d_AUTHORITY_INFO_ACCESS
                0x0000000040224141                AUTHORITY_INFO_ACCESS_new
                0x0000000040224154                AUTHORITY_INFO_ACCESS_free
                0x0000000040224167                i2a_ACCESS_DESCRIPTION
                0x00000000402241a8                X509V3_EXT_add
                0x0000000040224231                X509V3_EXT_get_nid
                0x00000000402242ad                X509V3_EXT_get
                0x00000000402242ce                X509V3_EXT_add_list
                0x00000000402242fa                X509V3_EXT_add_alias
                0x00000000402243fa                X509V3_EXT_cleanup
                0x000000004022441f                X509V3_add_standard_extensions
                0x0000000040224425                X509V3_EXT_d2i
                0x0000000040224477                X509V3_get_d2i
                0x0000000040224595                X509V3_add1_i2d
                0x0000000040225559                d2i_PROXY_POLICY
                0x000000004022556c                i2d_PROXY_POLICY
                0x000000004022557f                PROXY_POLICY_new
                0x0000000040225592                PROXY_POLICY_free
                0x00000000402255a5                d2i_PROXY_CERT_INFO_EXTENSION
                0x00000000402255b8                i2d_PROXY_CERT_INFO_EXTENSION
                0x00000000402255cb                PROXY_CERT_INFO_EXTENSION_new
                0x00000000402255de                PROXY_CERT_INFO_EXTENSION_free
                0x0000000040225685                d2i_PKEY_USAGE_PERIOD
                0x0000000040225698                i2d_PKEY_USAGE_PERIOD
                0x00000000402256ab                PKEY_USAGE_PERIOD_new
                0x00000000402256be                PKEY_USAGE_PERIOD_free
                0x00000000402256d1                i2s_ASN1_OCTET_STRING
                0x00000000402256e9                s2i_ASN1_OCTET_STRING
                0x0000000040225990                d2i_SXNETID
                0x00000000402259a3                i2d_SXNETID
                0x00000000402259b6                SXNETID_new
                0x00000000402259c9                SXNETID_free
                0x00000000402259dc                d2i_SXNET
                0x00000000402259ef                i2d_SXNET
                0x0000000040225a02                SXNET_new
                0x0000000040225a15                SXNET_free
                0x0000000040225a28                SXNET_get_id_INTEGER
                0x0000000040225a84                SXNET_add_id_INTEGER
                0x0000000040225c43                SXNET_add_id_asc
                0x0000000040225cfb                SXNET_add_id_ulong
                0x0000000040225d78                SXNET_get_id_asc
                0x0000000040225dd7                SXNET_get_id_ulong
                0x0000000040225e4e                X509_get_default_private_dir
                0x0000000040225e54                X509_get_default_cert_area
                0x0000000040225e5a                X509_get_default_cert_dir
                0x0000000040225e60                X509_get_default_cert_file
                0x0000000040225e66                X509_get_default_cert_dir_env
                0x0000000040225e6c                X509_get_default_cert_file_env
                0x0000000040225ea4                i2d_ASN1_SET
                0x0000000040226125                d2i_ASN1_SET
                0x00000000402269d5                ASN1_generate_v3
                0x000000004022731f                ASN1_generate_nconf
                0x000000004022751b                BN_GF2m_add
                0x00000000402275f6                BN_GF2m_mod_arr
                0x0000000040227837                BN_GF2m_mod_sqr_arr
                0x00000000402279d5                BN_GF2m_mod_mul_arr
                0x0000000040227c7c                BN_GF2m_mod_exp_arr
                0x0000000040227d9a                BN_GF2m_mod_sqrt_arr
                0x0000000040227e31                BN_GF2m_mod_solve_quad_arr
                0x00000000402281e8                BN_GF2m_poly2arr
                0x0000000040228295                BN_GF2m_mod
                0x000000004022833f                BN_GF2m_mod_inv
                0x00000000402284f5                BN_GF2m_mod_mul
                0x00000000402285b1                BN_GF2m_mod_div
                0x000000004022863f                BN_GF2m_mod_sqr
                0x00000000402286f3                BN_GF2m_mod_exp
                0x00000000402287af                BN_GF2m_mod_sqrt
                0x0000000040228863                BN_GF2m_mod_solve_quad
                0x0000000040228917                BN_GF2m_arr2poly
                0x0000000040228966                BN_GF2m_mod_inv_arr
                0x00000000402289dc                BN_GF2m_mod_div_arr
                0x0000000040228a5c                CONF_set_nconf
                0x0000000040228a98                CONF_set_default_method
                0x0000000040228aa5                CONF_load
                0x0000000040228ad2                NCONF_new
                0x0000000040228b13                NCONF_free
                0x0000000040228b28                NCONF_free_data
                0x0000000040228b3d                CONF_free
                0x0000000040228b5d                NCONF_load
                0x0000000040228b97                NCONF_load_bio
                0x0000000040228bd1                CONF_load_bio
                0x0000000040228c0e                NCONF_get_section
                0x0000000040228c78                CONF_get_section
                0x0000000040228ca9                NCONF_get_string
                0x0000000040228d40                CONF_get_string
                0x0000000040228d7c                NCONF_get_number_e
                0x0000000040228e1c                CONF_get_number
                0x0000000040228e77                NCONF_dump_bio
                0x0000000040228eb1                CONF_dump_bio
                0x0000000040228ed9                DSO_METHOD_null
                0x00000000402297b8                ec_GF2m_simple_mul
                0x0000000040229a21                ec_GF2m_precompute_mult
                0x0000000040229a2f                ec_GF2m_have_precompute_mult
                0x0000000040229a3d                i2a_ASN1_INTEGER
                0x0000000040229b8c                a2i_ASN1_INTEGER
                0x0000000040229ea3                i2a_ASN1_STRING
                0x0000000040229fc2                a2i_ASN1_STRING
                0x000000004022a284                d2i_OCSP_SIGNATURE
                0x000000004022a297                i2d_OCSP_SIGNATURE
                0x000000004022a2aa                OCSP_SIGNATURE_new
                0x000000004022a2bd                OCSP_SIGNATURE_free
                0x000000004022a2d0                d2i_OCSP_CERTID
                0x000000004022a2e3                i2d_OCSP_CERTID
                0x000000004022a2f6                OCSP_CERTID_new
                0x000000004022a309                OCSP_CERTID_free
                0x000000004022a31c                d2i_OCSP_ONEREQ
                0x000000004022a32f                i2d_OCSP_ONEREQ
                0x000000004022a342                OCSP_ONEREQ_new
                0x000000004022a355                OCSP_ONEREQ_free
                0x000000004022a368                d2i_OCSP_REQINFO
                0x000000004022a37b                i2d_OCSP_REQINFO
                0x000000004022a38e                OCSP_REQINFO_new
                0x000000004022a3a1                OCSP_REQINFO_free
                0x000000004022a3b4                d2i_OCSP_REQUEST
                0x000000004022a3c7                i2d_OCSP_REQUEST
                0x000000004022a3da                OCSP_REQUEST_new
                0x000000004022a3ed                OCSP_REQUEST_free
                0x000000004022a400                d2i_OCSP_RESPBYTES
                0x000000004022a413                i2d_OCSP_RESPBYTES
                0x000000004022a426                OCSP_RESPBYTES_new
                0x000000004022a439                OCSP_RESPBYTES_free
                0x000000004022a44c                d2i_OCSP_RESPONSE
                0x000000004022a45f                i2d_OCSP_RESPONSE
                0x000000004022a472                OCSP_RESPONSE_new
                0x000000004022a485                OCSP_RESPONSE_free
                0x000000004022a498                d2i_OCSP_RESPID
                0x000000004022a4ab                i2d_OCSP_RESPID
                0x000000004022a4be                OCSP_RESPID_new
                0x000000004022a4d1                OCSP_RESPID_free
                0x000000004022a4e4                d2i_OCSP_REVOKEDINFO
                0x000000004022a4f7                i2d_OCSP_REVOKEDINFO
                0x000000004022a50a                OCSP_REVOKEDINFO_new
                0x000000004022a51d                OCSP_REVOKEDINFO_free
                0x000000004022a530                d2i_OCSP_CERTSTATUS
                0x000000004022a543                i2d_OCSP_CERTSTATUS
                0x000000004022a556                OCSP_CERTSTATUS_new
                0x000000004022a569                OCSP_CERTSTATUS_free
                0x000000004022a57c                d2i_OCSP_SINGLERESP
                0x000000004022a58f                i2d_OCSP_SINGLERESP
                0x000000004022a5a2                OCSP_SINGLERESP_new
                0x000000004022a5b5                OCSP_SINGLERESP_free
                0x000000004022a5c8                d2i_OCSP_RESPDATA
                0x000000004022a5db                i2d_OCSP_RESPDATA
                0x000000004022a5ee                OCSP_RESPDATA_new
                0x000000004022a601                OCSP_RESPDATA_free
                0x000000004022a614                d2i_OCSP_BASICRESP
                0x000000004022a627                i2d_OCSP_BASICRESP
                0x000000004022a63a                OCSP_BASICRESP_new
                0x000000004022a64d                OCSP_BASICRESP_free
                0x000000004022a660                d2i_OCSP_CRLID
                0x000000004022a673                i2d_OCSP_CRLID
                0x000000004022a686                OCSP_CRLID_new
                0x000000004022a699                OCSP_CRLID_free
                0x000000004022a6ac                d2i_OCSP_SERVICELOC
                0x000000004022a6bf                i2d_OCSP_SERVICELOC
                0x000000004022a6d2                OCSP_SERVICELOC_new
                0x000000004022a6e5                OCSP_SERVICELOC_free
                0x000000004022aa8a                i2v_ASN1_BIT_STRING
                0x000000004022aadd                v2i_ASN1_BIT_STRING
                0x000000004022ac46                i2s_ASN1_ENUMERATED_TABLE
                0x000000004022adf2                d2i_EXTENDED_KEY_USAGE
                0x000000004022ae05                i2d_EXTENDED_KEY_USAGE
                0x000000004022ae18                EXTENDED_KEY_USAGE_new
                0x000000004022ae2b                EXTENDED_KEY_USAGE_free
                0x000000004022b082                _CONF_get_section
                0x000000004022b0b7                _CONF_get_section_values
                0x000000004022b0ce                _CONF_add_string
                0x000000004022b13b                _CONF_get_string
                0x000000004022b1ca                _CONF_new_data
                0x000000004022b205                _CONF_free_data
                0x000000004022b24a                _CONF_new_section
                0x000000004022c1dd                NCONF_default
                0x000000004022c1e3                NCONF_WIN32
                0x000000004022c1e9                codeend = .

.iplt           0x000000004022c1e9        0x0 load address 0x000000000022c1e9
 .iplt          0x000000004022c1e9        0x0 output.o

.rodata         0x000000004022c200    0x3622b load address 0x000000000022c200
 .rodata        0x000000004022c200    0x3622b output.o
                0x0000000040238c60                tcp_pcb_lists
                0x0000000040238c80                tcp_persist_backoff
                0x0000000040238c88                tcp_backoff
                0x0000000040238ca0                tcp_state_str
                0x0000000040238d70                ip_addr_broadcast
                0x0000000040238d74                ip_addr_any
                0x0000000040238d78                ethzero
                0x0000000040238d7e                ethbroadcast
                0x000000004023b020                BN_version
                0x000000004023b360                DES_SPtrans
                0x000000004023c360                DH_version
                0x000000004023d840                OSSL_DES_version
                0x000000004023d880                OSSL_libdes_version
                0x000000004023d920                EVP_version
                0x000000004023da40                IDEA_version
                0x000000004023da80                lh_version
                0x000000004023e0c0                MD4_version
                0x000000004023e100                MD5_version
                0x000000004024aca0                PEM_version
                0x000000004024ace0                PKCS7_ATTR_VERIFY_it
                0x000000004024ad60                PKCS7_ATTR_SIGN_it
                0x000000004024ade0                PKCS7_DIGEST_it
                0x000000004024aec0                PKCS7_ENCRYPT_it
                0x000000004024af60                PKCS7_SIGN_ENVELOPE_it
                0x000000004024b0c0                PKCS7_ENC_CONTENT_it
                0x000000004024b180                PKCS7_RECIP_INFO_it
                0x000000004024b2a0                PKCS7_ENVELOPE_it
                0x000000004024b360                PKCS7_ISSUER_AND_SERIAL_it
                0x000000004024b400                PKCS7_SIGNER_INFO_it
                0x000000004024b5a0                PKCS7_SIGNED_it
                0x000000004024b6e0                PKCS7_it
                0x000000004024ba60                RC2_version
                0x000000004024bba0                RC4_version
                0x000000004024bbe0                RMD160_version
                0x000000004024bc20                RSAPublicKey_it
                0x000000004024bd00                RSAPrivateKey_it
                0x000000004024bf00                RSA_version
                0x000000004024d100                SHA1_version
                0x000000004024d240                SHA256_version
                0x000000004024d500                SHA512_version
                0x000000004024d540                SHA_version
                0x000000004024d580                STACK_version
                0x000000004024d920                ASN1_SET_ANY_it
                0x000000004024d9a0                ASN1_SEQUENCE_ANY_it
                0x000000004024da20                ASN1_OCTET_STRING_NDEF_it
                0x000000004024da60                ASN1_FBOOLEAN_it
                0x000000004024daa0                ASN1_TBOOLEAN_it
                0x000000004024dae0                ASN1_BOOLEAN_it
                0x000000004024db20                DIRECTORYSTRING_it
                0x000000004024db60                DISPLAYTEXT_it
                0x000000004024dba0                ASN1_PRINTABLE_it
                0x000000004024dbe0                ASN1_SEQUENCE_it
                0x000000004024dc20                ASN1_ANY_it
                0x000000004024dc60                ASN1_BMPSTRING_it
                0x000000004024dca0                ASN1_UNIVERSALSTRING_it
                0x000000004024dce0                ASN1_VISIBLESTRING_it
                0x000000004024dd20                ASN1_GENERALIZEDTIME_it
                0x000000004024dd60                ASN1_UTCTIME_it
                0x000000004024dda0                ASN1_GENERALSTRING_it
                0x000000004024dde0                ASN1_IA5STRING_it
                0x000000004024de20                ASN1_T61STRING_it
                0x000000004024de60                ASN1_PRINTABLESTRING_it
                0x000000004024dea0                ASN1_UTF8STRING_it
                0x000000004024dee0                ASN1_OBJECT_it
                0x000000004024df20                ASN1_NULL_it
                0x000000004024df60                ASN1_OCTET_STRING_it
                0x000000004024dfa0                ASN1_BIT_STRING_it
                0x000000004024dfe0                ASN1_ENUMERATED_it
                0x000000004024e020                ASN1_INTEGER_it
                0x000000004024e080                X509_version
                0x000000004024e1e0                X509_ALGORS_it
                0x000000004024e260                X509_ALGOR_it
                0x000000004024e300                X509_ATTRIBUTE_it
                0x000000004024e3a0                X509_ATTRIBUTE_SET_it
                0x000000004024e440                CBIGNUM_it
                0x000000004024e480                BIGNUM_it
                0x000000004024e4c0                X509_CRL_it
                0x000000004024e5c0                X509_CRL_INFO_it
                0x000000004024e760                X509_REVOKED_it
                0x000000004024e820                X509_EXTENSIONS_it
                0x000000004024e8a0                X509_EXTENSION_it
                0x000000004024e960                ZLONG_it
                0x000000004024e9a0                LONG_it
                0x000000004024e9e0                X509_NAME_it
                0x000000004024ea20                x509_name_ff
                0x000000004024ea60                X509_NAME_INTERNAL_it
                0x000000004024eae0                X509_NAME_ENTRIES_it
                0x000000004024eb60                X509_NAME_ENTRY_it
                0x000000004024ec00                X509_PUBKEY_it
                0x000000004024ece0                X509_REQ_it
                0x000000004024ede0                X509_REQ_INFO_it
                0x000000004024ef00                X509_SIG_it
                0x000000004024efa0                NETSCAPE_SPKI_it
                0x000000004024f060                NETSCAPE_SPKAC_it
                0x000000004024f100                X509_it
                0x000000004024f200                X509_CINF_it
                0x000000004024f420                X509_CERT_PAIR_it
                0x000000004024f4c0                X509_CERT_AUX_it
                0x000000004024fac0                rsa_pkey_meth
                0x000000004024fba0                dh_pkey_meth
                0x000000004024fce0                dsa_pkey_meth
                0x000000004024fe20                ec_pkey_meth
                0x000000004024ff00                hmac_pkey_meth
                0x0000000040250020                rsa_asn1_meths
                0x00000000402501a0                dh_asn1_meth
                0x0000000040250260                dsa_asn1_meths
                0x0000000040250600                eckey_asn1_meth
                0x00000000402506c0                hmac_asn1_meth
                0x0000000040251860                CMS_Receipt_it
                0x0000000040251940                CMS_ReceiptRequest_it
                0x0000000040251a00                CMS_ReceiptsFrom_it
                0x0000000040251aa0                CMS_Attributes_Verify_it
                0x0000000040251b20                CMS_Attributes_Sign_it
                0x0000000040251ba0                CMS_ContentInfo_it
                0x0000000040251e60                CMS_CompressedData_it
                0x0000000040251f20                CMS_AuthenticatedData_it
                0x00000000402520e0                CMS_EncryptedData_it
                0x00000000402521a0                CMS_DigestedData_it
                0x0000000040252280                CMS_EnvelopedData_it
                0x00000000402523a0                CMS_RecipientInfo_it
                0x0000000040252500                CMS_OtherRecipientInfo_it
                0x00000000402525a0                CMS_PasswordRecipientInfo_it
                0x0000000040252680                CMS_KEKRecipientInfo_it
                0x0000000040252760                CMS_KEKIdentifier_it
                0x0000000040252820                CMS_KeyAgreeRecipientInfo_it
                0x0000000040252940                CMS_OriginatorIdentifierOrKey_it
                0x0000000040252a00                CMS_OriginatorPublicKey_it
                0x0000000040252aa0                CMS_RecipientEncryptedKey_it
                0x0000000040252b40                CMS_KeyAgreeRecipientIdentifier_it
                0x0000000040252be0                CMS_RecipientKeyIdentifier_it
                0x0000000040252ca0                CMS_OtherKeyAttribute_it
                0x0000000040252d40                CMS_KeyTransRecipientInfo_it
                0x0000000040252e20                CMS_EncryptedContentInfo_it
                0x0000000040252ee0                CMS_OriginatorInfo_it
                0x0000000040252f80                CMS_SignedData_it
                0x00000000402530c0                CMS_RevocationInfoChoice_it
                0x0000000040253160                CMS_OtherRevocationInfoFormat_it
                0x0000000040253200                CMS_SignerInfo_it
                0x00000000402533a0                CMS_EncapsulatedContentInfo_it
                0x0000000040253440                CMS_SignerIdentifier_it
                0x00000000402534e0                CMS_CertificateChoices_it
                0x0000000040253600                CMS_OtherCertificateFormat_it
                0x00000000402536a0                CMS_IssuerAndSerialNumber_it
                0x0000000040253960                ASN1_TIME_it
                0x00000000402539e0                ASN1_version
                0x0000000040253ba0                BF_version
                0x0000000040255de0                CAST_version
                0x0000000040255ea0                CAST_S_table7
                0x00000000402562a0                CAST_S_table6
                0x00000000402566a0                CAST_S_table5
                0x0000000040256aa0                CAST_S_table4
                0x0000000040256ea0                CAST_S_table3
                0x00000000402572a0                CAST_S_table2
                0x00000000402576a0                CAST_S_table1
                0x0000000040257aa0                CAST_S_table0
                0x00000000402580e0                DHparams_it
                0x00000000402581e0                DSAPublicKey_it
                0x00000000402582c0                dsa_pub_internal_it
                0x00000000402583a0                DSAparams_it
                0x00000000402584a0                DSAPrivateKey_it
                0x0000000040258620                DSA_SIG_it
                0x0000000040258700                DSA_version
                0x0000000040258740                EC_PRIVATEKEY_it
                0x0000000040258820                ECPKPARAMETERS_it
                0x00000000402588e0                ECPARAMETERS_it
                0x0000000040258a20                X9_62_CURVE_it
                0x0000000040258ae0                X9_62_FIELDID_it
                0x0000000040258c60                X9_62_CHARACTERISTIC_TWO_it
                0x0000000040258e40                X9_62_PENTANOMIAL_it
                0x000000004025c880                ECDH_version
                0x000000004025cc80                ECDSA_version
                0x000000004025cf80                RAND_version
                0x000000004025cfc0                NETSCAPE_CERT_SEQUENCE_it
                0x000000004025d0a0                PBEPARAM_it
                0x000000004025d140                PBKDF2PARAM_it
                0x000000004025d220                PBE2PARAM_it
                0x000000004025d2c0                PKCS8_PRIV_KEY_INFO_it
                0x000000004025d480                AUTHORITY_KEYID_it
                0x000000004025d540                NOTICEREF_it
                0x000000004025d5e0                USERNOTICE_it
                0x000000004025d680                POLICYQUALINFO_it
                0x000000004025d800                POLICYINFO_it
                0x000000004025d8a0                CERTIFICATEPOLICIES_it
                0x000000004025d920                v3_cpols
                0x000000004025d9a0                v3_idp
                0x000000004025da20                ISSUING_DIST_POINT_it
                0x000000004025db60                CRL_DIST_POINTS_it
                0x000000004025dbe0                DIST_POINT_it
                0x000000004025dca0                DIST_POINT_NAME_it
                0x000000004025de80                v3_freshest_crl
                0x000000004025df00                v3_crld
                0x000000004025e060                GENERAL_NAMES_it
                0x000000004025e0e0                GENERAL_NAME_it
                0x000000004025e2a0                EDIPARTYNAME_it
                0x000000004025e340                OTHERNAME_it
                0x000000004025e3e0                NAME_CONSTRAINTS_it
                0x000000004025e480                GENERAL_SUBTREE_it
                0x000000004025e540                v3_name_constraints
                0x000000004025e5c0                POLICY_CONSTRAINTS_it
                0x000000004025e660                v3_policy_constraints
                0x000000004025e6e0                POLICY_MAPPINGS_it
                0x000000004025e760                POLICY_MAPPING_it
                0x000000004025e800                v3_policy_mappings
                0x000000004025ea80                X509_VAL_it
                0x000000004025f520                ECDSA_SIG_it
                0x000000004025f5c0                PKCS12_AUTHSAFES_it
                0x000000004025f640                PKCS12_SAFEBAGS_it
                0x000000004025f6c0                PKCS12_SAFEBAG_it
                0x000000004025f920                PKCS12_BAGS_it
                0x000000004025fae0                PKCS12_MAC_DATA_it
                0x000000004025fba0                PKCS12_it
                0x000000004025fd40                v3_alt
                0x000000004025fe80                BASIC_CONSTRAINTS_it
                0x000000004025ff20                v3_bcons
                0x000000004025ffa0                AUTHORITY_INFO_ACCESS_it
                0x0000000040260020                ACCESS_DESCRIPTION_it
                0x00000000402600c0                v3_sinfo
                0x0000000040260140                v3_info
                0x00000000402601c0                v3_ocsp_serviceloc
                0x0000000040260240                v3_ocsp_nocheck
                0x00000000402602c0                v3_ocsp_nonce
                0x0000000040260340                v3_crl_hold
                0x00000000402603c0                v3_crl_invdate
                0x0000000040260440                v3_ocsp_acutoff
                0x00000000402604c0                v3_ocsp_crlid
                0x0000000040260540                v3_pci
                0x00000000402605c0                PROXY_CERT_INFO_EXTENSION_it
                0x0000000040260660                PROXY_POLICY_it
                0x0000000040260700                PKEY_USAGE_PERIOD_it
                0x00000000402607a0                v3_pkey_usage_period
                0x0000000040260820                v3_skey_id
                0x00000000402608a0                SXNET_it
                0x0000000040260940                SXNETID_it
                0x00000000402609e0                v3_sxnet
                0x0000000040261000                CONF_version
                0x0000000040261040                OCSP_SERVICELOC_it
                0x00000000402610e0                OCSP_CRLID_it
                0x00000000402611a0                OCSP_BASICRESP_it
                0x0000000040261280                OCSP_RESPDATA_it
                0x00000000402613a0                OCSP_SINGLERESP_it
                0x00000000402614c0                OCSP_CERTSTATUS_it
                0x0000000040261580                OCSP_REVOKEDINFO_it
                0x0000000040261620                OCSP_RESPID_it
                0x00000000402616c0                OCSP_RESPONSE_it
                0x0000000040261760                OCSP_RESPBYTES_it
                0x0000000040261800                OCSP_REQUEST_it
                0x00000000402618a0                OCSP_REQINFO_it
                0x0000000040261980                OCSP_ONEREQ_it
                0x0000000040261a20                OCSP_CERTID_it
                0x0000000040261b00                OCSP_SIGNATURE_it
                0x0000000040261bc0                v3_akey_id
                0x0000000040261c40                v3_key_usage
                0x0000000040261cc0                v3_nscert
                0x0000000040261d40                v3_crl_reason
                0x0000000040261dc0                EXTENDED_KEY_USAGE_it
                0x0000000040261e40                v3_ocsp_accresp
                0x0000000040261ec0                v3_ext_ku
                0x0000000040261f40                v3_ns_ia5_list
                0x0000000040262280                v3_inhibit_anyp
                0x0000000040262300                v3_delta_crl
                0x0000000040262380                v3_crl_num
                0x0000000040262400                CONF_def_version

.rodata.str1.8  0x0000000040262430     0xc28d load address 0x0000000000262430
 .rodata.str1.8
                0x0000000040262430     0xc28d output.o
                                       0xc8c5 (size before relaxing)

.rodata.str1.1  0x000000004026e6bd    0x141ff load address 0x000000000026e6bd
 .rodata.str1.1
                0x000000004026e6bd    0x141ff output.o
                                      0x16a6d (size before relaxing)

.eh_frame       0x00000000402828c0    0x3c17c load address 0x00000000002828c0
 .eh_frame      0x00000000402828c0    0x3c17c output.o
                                      0x3fbb4 (size before relaxing)

.rela.dyn       0x00000000402bea40        0x0 load address 0x00000000002bea40
 .rela.got      0x00000000402bea40        0x0 output.o
 .rela.iplt     0x00000000402bea40        0x0 output.o
 .rela.text     0x00000000402bea40        0x0 output.o
 .rela.entry.text
                0x00000000402bea40        0x0 output.o

.data           0x00000000402bf000   0xd04918 load address 0x00000000002bf000
                0x00000000402bf000                data = .
 *(.data)
 .data          0x00000000402bf000   0xd03c6d output.o
                0x00000000402bf010                uefi_memory_map_size
                0x00000000402bf040                config
                0x00000000402cf7f0                vmm_start_phys
                0x00000000402cf7f4                use_pae
                0x00000000402cfa10                savemsr_index
                0x00000000402d4000                calluefi
                0x00000000402d4216                calluefi_uefi_gdtr
                0x00000000402d4226                calluefi_uefi_idtr
                0x00000000402d4236                calluefi_uefi_ldtr
                0x00000000402d423e                calluefi_uefi_sregs
                0x00000000402d424e                calluefi_uefi_cr3
                0x00000000402d4256                guest_int0x15_hook
                0x00000000402d4273                guest_int0x15_e801_fake_ax
                0x00000000402d4276                guest_int0x15_e801_fake_bx
                0x00000000402d4287                guest_int0x15_orig
                0x00000000402d429c                guest_int0x15_e820_data_minus0x18
                0x00000000402d42a4                guest_int0x15_e820_end
                0x00000000402d42ca                guest_int0x15_hook_end
                0x00000000402d52ce                wakeup_entry_start
                0x00000000402d52d7                wakeup_entry_addr
                0x00000000402d52fd                wakeup_entry_cr4
                0x00000000402d5306                wakeup_entry_cr3
                0x00000000402d530f                wakeup_entry_cr0
                0x00000000402d531e                wakeup_entry_gdtr
                0x00000000402d5328                wakeup_entry_end
                0x00000000402d55a0                ata_bm_handler_table
                0x00000000402d5600                ata_ctlblk_handler_table
                0x00000000402d5620                ata_cmdblk_handler_table
                0x00000000402d61d0                usb_log_level
                0x00000000402d6ac0                hSessionCnt
                0x00000000402d6ac8                hObjectCnt
                0x00000000402d72c0                g_rgSCardT1Pci
                0x00000000402d72d0                g_rgSCardT0Pci
                0x00000000402d72e0                FI
                0x00000000402d7320                DI
                0x00000000402db9c0                default_pctx
                0x00000000402dec40                rand_ssleay_meth
                0x0000000040fc2c70                . = ALIGN (0x8)
 *fill*         0x0000000040fc2c6d        0x3 
                0x0000000040fc2c70                __initfunc_start = .
 *(.initfunc)
 .initfunc      0x0000000040fc2c70      0xac8 output.o
                0x0000000040fc2c70                __initfunc_acpi_init_paral
                0x0000000040fc2c88                __initfunc_acpi_init_global
                0x0000000040fc2ca0                __initfunc_beep_init_msg
                0x0000000040fc2cb8                __initfunc_cache_init_pass
                0x0000000040fc2cd0                __initfunc_cache_init_vcpu
                0x0000000040fc2ce8                __initfunc_update_mtrr_and_pat
                0x0000000040fc2d00                __initfunc_cache_init_pcpu
                0x0000000040fc2d18                __initfunc_callrealmode_panic
                0x0000000040fc2d30                __initfunc_callrealmode_init_global
                0x0000000040fc2d48                __initfunc_cpu_mmu_spt_init_pcpu
                0x0000000040fc2d60                __initfunc_cpu_mmu_spt_init_global
                0x0000000040fc2d78                __initfunc_cpuid_init
                0x0000000040fc2d90                __initfunc_cpuid_pass_init
                0x0000000040fc2da8                __initfunc_exint_pass_init
                0x0000000040fc2dc0                __initfunc_gmm_pass_init
                0x0000000040fc2dd8                __initfunc_install_int0x15_hook
                0x0000000040fc2df0                __initfunc_idman_init
                0x0000000040fc2e08                __initfunc_idman_init_global
                0x0000000040fc2e20                __initfunc_int_wakeup
                0x0000000040fc2e38                __initfunc_int_init_global
                0x0000000040fc2e50                __initfunc_io_io_init
                0x0000000040fc2e68                __initfunc_setiohooks
                0x0000000040fc2e80                __initfunc_io_iopass_init
                0x0000000040fc2e98                __initfunc_keyboard_init_msg
                0x0000000040fc2eb0                __initfunc_localapic_init2
                0x0000000040fc2ec8                __initfunc_localapic_init
                0x0000000040fc2ee0                __initfunc_get_shiftflags
                0x0000000040fc2ef8                __initfunc_copy_minios
                0x0000000040fc2f10                __initfunc_print_boot_msg
                0x0000000040fc2f28                __initfunc_debug_on_shift_key
                0x0000000040fc2f40                __initfunc_wait_for_create_pass_vm
                0x0000000040fc2f58                __initfunc_create_pass_vm
                0x0000000040fc2f70                __initfunc_virtualization_init_pcpu
                0x0000000040fc2f88                __initfunc_unmap_user_area
                0x0000000040fc2fa0                __initfunc_mm_init_global
                0x0000000040fc2fb8                __initfunc_mmio_debug
                0x0000000040fc2fd0                __initfunc_mmio_init
                0x0000000040fc2fe8                __initfunc_msg_init_global
                0x0000000040fc3000                __initfunc_msr_init
                0x0000000040fc3018                __initfunc_msr_pass_init
                0x0000000040fc3030                __initfunc_nmi_pass_init_pcpu
                0x0000000040fc3048                __initfunc_nmi_pass_init
                0x0000000040fc3060                __initfunc_panic_init_pcpu
                0x0000000040fc3078                __initfunc_panic_init_msg
                0x0000000040fc3090                __initfunc_panic_init_global3
                0x0000000040fc30a8                __initfunc_panic_init_global
                0x0000000040fc30c0                __initfunc_printf_init_global
                0x0000000040fc30d8                __initfunc_process_wakeup
                0x0000000040fc30f0                __initfunc_process_init_ap
                0x0000000040fc3108                __initfunc_process_init_global
                0x0000000040fc3120                __initfunc_random_init_config0
                0x0000000040fc3138                __initfunc_random_init_global
                0x0000000040fc3150                __initfunc_reboot_init_msg
                0x0000000040fc3168                __initfunc_segment_init_global
                0x0000000040fc3180                __initfunc_serial_init_msg
                0x0000000040fc3198                __initfunc_sleep_init_msg
                0x0000000040fc31b0                __initfunc_sleep_init_global
                0x0000000040fc31c8                __initfunc_svm_panic
                0x0000000040fc31e0                __initfunc_sx_init_pass_init
                0x0000000040fc31f8                __initfunc_thread_init_pcpu
                0x0000000040fc3210                __initfunc_thread_init_global
                0x0000000040fc3228                __initfunc_time_wakeup
                0x0000000040fc3240                __initfunc_time_init_msg
                0x0000000040fc3258                __initfunc_time_init_dbsp
                0x0000000040fc3270                __initfunc_time_init_pcpu
                0x0000000040fc3288                __initfunc_time_init_global_status
                0x0000000040fc32a0                __initfunc_time_init_global
                0x0000000040fc32b8                __initfunc_timer_init_global
                0x0000000040fc32d0                __initfunc_tty_init_msg
                0x0000000040fc32e8                __initfunc_tty_init_global2
                0x0000000040fc3300                __initfunc_tty_init_global
                0x0000000040fc3318                __initfunc_vcpu_init_global
                0x0000000040fc3330                __initfunc_vga_init
                0x0000000040fc3348                __initfunc_vmmcall_init
                0x0000000040fc3360                __initfunc_vmmcall_boot_init
                0x0000000040fc3378                __initfunc_vmmcall_dbgsh_init_global
                0x0000000040fc3390                __initfunc_vmmcall_dbgsh_init
                0x0000000040fc33a8                __initfunc_vmmcall_iccard_init
                0x0000000040fc33c0                __initfunc_vmmcall_status_init
                0x0000000040fc33d8                __initfunc_vmmcall_status_init_global
                0x0000000040fc33f0                __initfunc_vramwrite_init_bsp
                0x0000000040fc3408                __initfunc_vramwrite_init_msg
                0x0000000040fc3420                __initfunc_vt_register_status_callback
                0x0000000040fc3438                __initfunc_vt_panic
                0x0000000040fc3450                __initfunc_xsetbv_init
                0x0000000040fc3468                __initfunc_xsetbv_pass_init
                0x0000000040fc3480                __initfunc_uefi_param_ext_init
                0x0000000040fc3498                __initfunc_core_init
                0x0000000040fc34b0                __initfunc_ieee1394_init
                0x0000000040fc34c8                __initfunc_iommu_setup
                0x0000000040fc34e0                __initfunc_pci_conceal_init
                0x0000000040fc34f8                __initfunc_pci_init
                0x0000000040fc3510                __initfunc_pci_match_compat_init
                0x0000000040fc3528                __initfunc_ieee1394_thunderbolt_conceal
                0x0000000040fc3540                __initfunc_ieee1394_hint
                0x0000000040fc3558                __initfunc_ieee1394log_init
                0x0000000040fc3570                __initfunc_x540_init
                0x0000000040fc3588                __initfunc_pci_monitor_init_msg
                0x0000000040fc35a0                __initfunc_pci_monitor_init
                0x0000000040fc35b8                __initfunc_ata_init
                0x0000000040fc35d0                __initfunc_uhci_init
                0x0000000040fc35e8                __initfunc_ehci_init
                0x0000000040fc3600                __initfunc_xhci_init
                0x0000000040fc3618                __initfunc_pro100_init
                0x0000000040fc3630                __initfunc_resume_pro1000
                0x0000000040fc3648                __initfunc_vpn_pro1000_init
                0x0000000040fc3660                __initfunc_bnx_init
                0x0000000040fc3678                __initfunc_vmmcall_hello_init
                0x0000000040fc3690                __initfunc_storage_kernel_init
                0x0000000040fc36a8                __initfunc_storage_io_initfunc
                0x0000000040fc36c0                __initfunc_vpn_kernel_init
                0x0000000040fc36d8                __initfunc_idman_kernel_init
                0x0000000040fc36f0                __initfunc_netapi_init
                0x0000000040fc3708                __initfunc_net_main_init
                0x0000000040fc3720                __initfunc_echoctl_init_msg
                0x0000000040fc3738                __initfunc_end = .
                0x0000000040fc3738                __process_builtin = .
 *(.processes)
 .processes     0x0000000040fc3738      0x1e0 output.o
                0x0000000040fc3918                __process_builtin_end = .
                0x0000000040fc3918                dataend = .

.got            0x0000000040fc3918        0x0 load address 0x0000000000fc3918
 .got           0x0000000040fc3918        0x0 output.o

.got.plt        0x0000000040fc3918        0x0 load address 0x0000000000fc3918
 .got.plt       0x0000000040fc3918        0x0 output.o

.igot.plt       0x0000000040fc3918        0x0 load address 0x0000000000fc3918
 .igot.plt      0x0000000040fc3918        0x0 output.o

.bss            0x0000000040fc4000  0x12c2000 load address 0x0000000000fc4000
                0x0000000040fc4000                bss = .
 *(.bss)
 .bss           0x0000000040fc4000  0x12c1de0 output.o
                0x0000000040fc40b0                acpi_dsdt_system_state
                0x0000000040fc40d0                num_of_processors
                0x0000000040fc4120                uefi_memory_map_descsize
                0x0000000040fc4140                uefi_memory_map_data
                0x0000000040fc86e8                prohibit_iccard_init
                0x0000000040fcc000                uefi_mmio_space
                0x0000000040fcc008                vmmsize
                0x0000000040fcc010                memorysize
                0x0000000040fcc018                e801_fake_bx
                0x0000000040fcc01a                e801_fake_ax
                0x0000000041116a80                pcpu_default
                0x0000000041136000                uefi_booted
                0x0000000041136868                ps2_locked
                0x0000000041159100                handler_descriptor_lock
                0x0000000041159120                handler_descriptor
                0x0000000041159328                drhd_list_head
                0x0000000041159330                iommu_detected
                0x0000000041159340                num_dom
                0x0000000041159360                dom_io
                0x0000000041159b60                clflush_size
                0x0000000041159b68                pci_config_mmio_data_head
                0x0000000041159b70                pci_driver_list_head
                0x0000000041159b78                pci_device_list_head
                0x000000004115a510                uhci_monitor_boost_hc
                0x000000004115a518                ehci_host
                0x000000004115a530                usb_hc_list_head
                0x000000004115a538                usb_busses_head
                0x0000000041161d00                rt
                0x000000004127f740                dwReaders
                0x000000004127f760                mszReaders
                0x000000004127fb60                hContext
                0x000000004127fb68                sessionTable
                0x000000004127fb70                slotTable
                0x000000004127fb78                slotFlag
                0x000000004127fb79                libInitFlag
                0x000000004127fb80                curthread
                0x000000004127fba0                readerState
                0x000000004127fc20                readerTracker
                0x000000004127fd80                sReaderContext
                0x0000000041280a00                dhcp_rx_options_given
                0x0000000041280a20                dhcp_rx_options_val
                0x0000000041281140                ram_heap
                0x00000000422846f0                netif_default
                0x00000000422846f8                netif_list
                0x0000000042284701                pbuf_free_ooseq_pending
                0x0000000042284710                tcp_active_pcbs_changed
                0x0000000042284718                tcp_tmp_pcb
                0x0000000042284720                tcp_tw_pcbs
                0x0000000042284728                tcp_active_pcbs
                0x0000000042284730                tcp_listen_pcbs
                0x0000000042284738                tcp_bound_pcbs
                0x0000000042284740                tcp_ticks
                0x0000000042284760                tcp_input_pcb
                0x00000000422847c0                udp_pcbs
                0x00000000422847d8                current_iphdr_dest
                0x00000000422847dc                current_iphdr_src
                0x00000000422847e0                current_header
                0x00000000422847e8                current_netif
                0x00000000422849f8                OPENSSL_NONPIC_relocated
                0x0000000042284a00                OPENSSL_ia32cap_P
                0x0000000042285648                cleanse_ctr
                0x00000000422856a8                obj_cleanup_defer
                0x00000000422856c8                _shadow_DES_check_key
                0x00000000422857b8                sigx_app
                0x00000000422857c0                sig_app
                0x00000000422857c8                app_pkey_methods
                0x0000000042285820                chelp_inited
 *(COMMON)
                0x0000000042286000                . = ALIGN (0x1000)
 *fill*         0x0000000042285de0      0x220 
                0x0000000042286000                end = .

/DISCARD/
 *(.gomi)
LOAD output.o
OUTPUT(bitvisor.elf elf64-x86-64)

.comment        0x0000000000000000       0x12
 .comment       0x0000000000000000       0x12 output.o
                                       0x2ce7 (size before relaxing)

.note.GNU-stack
                0x0000000000000000        0x0
 .note.GNU-stack
                0x0000000000000000        0x0 output.o

.debug_aranges  0x0000000000000000     0x7340
 .debug_aranges
                0x0000000000000000     0x7340 output.o

.debug_info     0x0000000000000000   0x3daf07
 .debug_info    0x0000000000000000   0x3daf07 output.o

.debug_abbrev   0x0000000000000000    0x62385
 .debug_abbrev  0x0000000000000000    0x62385 output.o

.debug_line     0x0000000000000000    0xfdabe
 .debug_line    0x0000000000000000    0xfdabe output.o

.debug_str      0x0000000000000000    0x3e68b
 .debug_str     0x0000000000000000    0x3e68b output.o
                                     0x17adad (size before relaxing)

.debug_loc      0x0000000000000000   0x33766c
 .debug_loc     0x0000000000000000   0x33766c output.o

.debug_ranges   0x0000000000000000    0x1ad40
 .debug_ranges  0x0000000000000000    0x1ad40 output.o

Cross Reference Table

Symbol                                            File
ACCESS_DESCRIPTION_free                           output.o
ACCESS_DESCRIPTION_it                             output.o
ACCESS_DESCRIPTION_new                            output.o
AES_cbc_encrypt                                   output.o
AES_cfb128_encrypt                                output.o
AES_cfb1_encrypt                                  output.o
AES_cfb8_encrypt                                  output.o
AES_decrypt                                       output.o
AES_ecb_encrypt                                   output.o
AES_encrypt                                       output.o
AES_ofb128_encrypt                                output.o
AES_set_decrypt_key                               output.o
AES_set_encrypt_key                               output.o
AES_unwrap_key                                    output.o
AES_wrap_key                                      output.o
ASN1_ANY_it                                       output.o
ASN1_BIT_STRING_check                             output.o
ASN1_BIT_STRING_free                              output.o
ASN1_BIT_STRING_get_bit                           output.o
ASN1_BIT_STRING_it                                output.o
ASN1_BIT_STRING_new                               output.o
ASN1_BIT_STRING_set                               output.o
ASN1_BIT_STRING_set_bit                           output.o
ASN1_BMPSTRING_free                               output.o
ASN1_BMPSTRING_it                                 output.o
ASN1_BMPSTRING_new                                output.o
ASN1_BOOLEAN_it                                   output.o
ASN1_ENUMERATED_free                              output.o
ASN1_ENUMERATED_get                               output.o
ASN1_ENUMERATED_it                                output.o
ASN1_ENUMERATED_new                               output.o
ASN1_ENUMERATED_set                               output.o
ASN1_ENUMERATED_to_BN                             output.o
ASN1_FBOOLEAN_it                                  output.o
ASN1_GENERALIZEDTIME_adj                          output.o
ASN1_GENERALIZEDTIME_check                        output.o
ASN1_GENERALIZEDTIME_free                         output.o
ASN1_GENERALIZEDTIME_it                           output.o
ASN1_GENERALIZEDTIME_new                          output.o
ASN1_GENERALIZEDTIME_print                        output.o
ASN1_GENERALIZEDTIME_set                          output.o
ASN1_GENERALIZEDTIME_set_string                   output.o
ASN1_GENERALSTRING_free                           output.o
ASN1_GENERALSTRING_it                             output.o
ASN1_GENERALSTRING_new                            output.o
ASN1_IA5STRING_free                               output.o
ASN1_IA5STRING_it                                 output.o
ASN1_IA5STRING_new                                output.o
ASN1_INTEGER_cmp                                  output.o
ASN1_INTEGER_dup                                  output.o
ASN1_INTEGER_free                                 output.o
ASN1_INTEGER_get                                  output.o
ASN1_INTEGER_it                                   output.o
ASN1_INTEGER_new                                  output.o
ASN1_INTEGER_set                                  output.o
ASN1_INTEGER_to_BN                                output.o
ASN1_NULL_free                                    output.o
ASN1_NULL_it                                      output.o
ASN1_NULL_new                                     output.o
ASN1_OBJECT_create                                output.o
ASN1_OBJECT_free                                  output.o
ASN1_OBJECT_it                                    output.o
ASN1_OBJECT_new                                   output.o
ASN1_OCTET_STRING_NDEF_it                         output.o
ASN1_OCTET_STRING_cmp                             output.o
ASN1_OCTET_STRING_dup                             output.o
ASN1_OCTET_STRING_free                            output.o
ASN1_OCTET_STRING_it                              output.o
ASN1_OCTET_STRING_new                             output.o
ASN1_OCTET_STRING_set                             output.o
ASN1_PCTX_free                                    output.o
ASN1_PCTX_get_cert_flags                          output.o
ASN1_PCTX_get_flags                               output.o
ASN1_PCTX_get_nm_flags                            output.o
ASN1_PCTX_get_oid_flags                           output.o
ASN1_PCTX_get_str_flags                           output.o
ASN1_PCTX_new                                     output.o
ASN1_PCTX_set_cert_flags                          output.o
ASN1_PCTX_set_flags                               output.o
ASN1_PCTX_set_nm_flags                            output.o
ASN1_PCTX_set_oid_flags                           output.o
ASN1_PCTX_set_str_flags                           output.o
ASN1_PRINTABLESTRING_free                         output.o
ASN1_PRINTABLESTRING_it                           output.o
ASN1_PRINTABLESTRING_new                          output.o
ASN1_PRINTABLE_free                               output.o
ASN1_PRINTABLE_it                                 output.o
ASN1_PRINTABLE_new                                output.o
ASN1_PRINTABLE_type                               output.o
ASN1_SEQUENCE_ANY_it                              output.o
ASN1_SEQUENCE_it                                  output.o
ASN1_SET_ANY_it                                   output.o
ASN1_STRING_TABLE_add                             output.o
ASN1_STRING_TABLE_cleanup                         output.o
ASN1_STRING_TABLE_get                             output.o
ASN1_STRING_cmp                                   output.o
ASN1_STRING_copy                                  output.o
ASN1_STRING_data                                  output.o
ASN1_STRING_dup                                   output.o
ASN1_STRING_free                                  output.o
ASN1_STRING_get_default_mask                      output.o
ASN1_STRING_length                                output.o
ASN1_STRING_length_set                            output.o
ASN1_STRING_new                                   output.o
ASN1_STRING_print                                 output.o
ASN1_STRING_print_ex                              output.o
ASN1_STRING_set                                   output.o
ASN1_STRING_set0                                  output.o
ASN1_STRING_set_by_NID                            output.o
ASN1_STRING_set_default_mask                      output.o
ASN1_STRING_set_default_mask_asc                  output.o
ASN1_STRING_to_UTF8                               output.o
ASN1_STRING_type                                  output.o
ASN1_STRING_type_new                              output.o
ASN1_T61STRING_free                               output.o
ASN1_T61STRING_it                                 output.o
ASN1_T61STRING_new                                output.o
ASN1_TBOOLEAN_it                                  output.o
ASN1_TIME_adj                                     output.o
ASN1_TIME_check                                   output.o
ASN1_TIME_free                                    output.o
ASN1_TIME_it                                      output.o
ASN1_TIME_new                                     output.o
ASN1_TIME_print                                   output.o
ASN1_TIME_set                                     output.o
ASN1_TIME_set_string                              output.o
ASN1_TIME_to_generalizedtime                      output.o
ASN1_TYPE_cmp                                     output.o
ASN1_TYPE_free                                    output.o
ASN1_TYPE_get                                     output.o
ASN1_TYPE_get_int_octetstring                     output.o
ASN1_TYPE_get_octetstring                         output.o
ASN1_TYPE_new                                     output.o
ASN1_TYPE_set                                     output.o
ASN1_TYPE_set1                                    output.o
ASN1_TYPE_set_int_octetstring                     output.o
ASN1_TYPE_set_octetstring                         output.o
ASN1_UNIVERSALSTRING_free                         output.o
ASN1_UNIVERSALSTRING_it                           output.o
ASN1_UNIVERSALSTRING_new                          output.o
ASN1_UNIVERSALSTRING_to_string                    output.o
ASN1_UTCTIME_adj                                  output.o
ASN1_UTCTIME_check                                output.o
ASN1_UTCTIME_cmp_time_t                           output.o
ASN1_UTCTIME_free                                 output.o
ASN1_UTCTIME_it                                   output.o
ASN1_UTCTIME_new                                  output.o
ASN1_UTCTIME_print                                output.o
ASN1_UTCTIME_set                                  output.o
ASN1_UTCTIME_set_string                           output.o
ASN1_UTF8STRING_free                              output.o
ASN1_UTF8STRING_it                                output.o
ASN1_UTF8STRING_new                               output.o
ASN1_VISIBLESTRING_free                           output.o
ASN1_VISIBLESTRING_it                             output.o
ASN1_VISIBLESTRING_new                            output.o
ASN1_bn_print                                     output.o
ASN1_check_infinite_end                           output.o
ASN1_const_check_infinite_end                     output.o
ASN1_d2i_bio                                      output.o
ASN1_digest                                       output.o
ASN1_dup                                          output.o
ASN1_generate_nconf                               output.o
ASN1_generate_v3                                  output.o
ASN1_get_object                                   output.o
ASN1_i2d_bio                                      output.o
ASN1_item_d2i                                     output.o
ASN1_item_d2i_bio                                 output.o
ASN1_item_digest                                  output.o
ASN1_item_dup                                     output.o
ASN1_item_ex_d2i                                  output.o
ASN1_item_ex_free                                 output.o
ASN1_item_ex_i2d                                  output.o
ASN1_item_ex_new                                  output.o
ASN1_item_free                                    output.o
ASN1_item_i2d                                     output.o
ASN1_item_i2d_bio                                 output.o
ASN1_item_ndef_i2d                                output.o
ASN1_item_new                                     output.o
ASN1_item_pack                                    output.o
ASN1_item_print                                   output.o
ASN1_item_sign                                    output.o
ASN1_item_unpack                                  output.o
ASN1_item_verify                                  output.o
ASN1_mbstring_copy                                output.o
ASN1_mbstring_ncopy                               output.o
ASN1_object_size                                  output.o
ASN1_pack_string                                  output.o
ASN1_parse                                        output.o
ASN1_parse_dump                                   output.o
ASN1_primitive_free                               output.o
ASN1_primitive_new                                output.o
ASN1_put_eoc                                      output.o
ASN1_put_object                                   output.o
ASN1_seq_pack                                     output.o
ASN1_seq_unpack                                   output.o
ASN1_sign                                         output.o
ASN1_tag2bit                                      output.o
ASN1_tag2str                                      output.o
ASN1_template_d2i                                 output.o
ASN1_template_free                                output.o
ASN1_template_i2d                                 output.o
ASN1_template_new                                 output.o
ASN1_unpack_string                                output.o
ASN1_verify                                       output.o
ASN1_version                                      output.o
AUTHORITY_INFO_ACCESS_free                        output.o
AUTHORITY_INFO_ACCESS_it                          output.o
AUTHORITY_INFO_ACCESS_new                         output.o
AUTHORITY_KEYID_free                              output.o
AUTHORITY_KEYID_it                                output.o
AUTHORITY_KEYID_new                               output.o
AddCertDataByBuf                                  output.o
AddElem                                           output.o
AddIdPassDataByBuf                                output.o
AddObjTblByTlv                                    output.o
BASIC_CONSTRAINTS_free                            output.o
BASIC_CONSTRAINTS_it                              output.o
BASIC_CONSTRAINTS_new                             output.o
BF_cbc_encrypt                                    output.o
BF_cfb64_encrypt                                  output.o
BF_decrypt                                        output.o
BF_ecb_encrypt                                    output.o
BF_encrypt                                        output.o
BF_ofb64_encrypt                                  output.o
BF_options                                        output.o
BF_set_key                                        output.o
BF_version                                        output.o
BIGNUM_it                                         output.o
BIO_asn1_get_prefix                               output.o
BIO_asn1_get_suffix                               output.o
BIO_asn1_set_prefix                               output.o
BIO_asn1_set_suffix                               output.o
BIO_callback_ctrl                                 output.o
BIO_clear_flags                                   output.o
BIO_copy_next_retry                               output.o
BIO_ctrl                                          output.o
BIO_ctrl_pending                                  output.o
BIO_ctrl_wpending                                 output.o
BIO_dump                                          output.o
BIO_dump_cb                                       output.o
BIO_dump_indent                                   output.o
BIO_dump_indent_cb                                output.o
BIO_dup_chain                                     output.o
BIO_f_asn1                                        output.o
BIO_f_base64                                      output.o
BIO_f_buffer                                      output.o
BIO_f_cipher                                      output.o
BIO_f_md                                          output.o
BIO_find_type                                     output.o
BIO_free                                          output.o
BIO_free_all                                      output.o
BIO_get_callback                                  output.o
BIO_get_callback_arg                              output.o
BIO_get_ex_data                                   output.o
BIO_get_ex_new_index                              output.o
BIO_get_retry_BIO                                 output.o
BIO_get_retry_reason                              output.o
BIO_gets                                          output.o
BIO_indent                                        output.o
BIO_int_ctrl                                      output.o
BIO_method_name                                   output.o
BIO_method_type                                   output.o
BIO_new                                           output.o
BIO_new_CMS                                       output.o
BIO_new_NDEF                                      output.o
BIO_new_mem_buf                                   output.o
BIO_next                                          output.o
BIO_number_read                                   output.o
BIO_number_written                                output.o
BIO_pop                                           output.o
BIO_printf                                        output.o
BIO_ptr_ctrl                                      output.o
BIO_push                                          output.o
BIO_puts                                          output.o
BIO_read                                          output.o
BIO_s_mem                                         output.o
BIO_s_null                                        output.o
BIO_set                                           output.o
BIO_set_callback                                  output.o
BIO_set_callback_arg                              output.o
BIO_set_cipher                                    output.o
BIO_set_ex_data                                   output.o
BIO_set_flags                                     output.o
BIO_snprintf                                      output.o
BIO_test_flags                                    output.o
BIO_vfree                                         output.o
BIO_write                                         output.o
BN_BLINDING_convert                               output.o
BN_BLINDING_convert_ex                            output.o
BN_BLINDING_create_param                          output.o
BN_BLINDING_free                                  output.o
BN_BLINDING_get_flags                             output.o
BN_BLINDING_get_thread_id                         output.o
BN_BLINDING_invert                                output.o
BN_BLINDING_invert_ex                             output.o
BN_BLINDING_new                                   output.o
BN_BLINDING_set_flags                             output.o
BN_BLINDING_set_thread_id                         output.o
BN_BLINDING_thread_id                             output.o
BN_BLINDING_update                                output.o
BN_CTX_end                                        output.o
BN_CTX_free                                       output.o
BN_CTX_get                                        output.o
BN_CTX_init                                       output.o
BN_CTX_new                                        output.o
BN_CTX_start                                      output.o
BN_GENCB_call                                     output.o
BN_GF2m_add                                       output.o
BN_GF2m_arr2poly                                  output.o
BN_GF2m_mod                                       output.o
BN_GF2m_mod_arr                                   output.o
BN_GF2m_mod_div                                   output.o
BN_GF2m_mod_div_arr                               output.o
BN_GF2m_mod_exp                                   output.o
BN_GF2m_mod_exp_arr                               output.o
BN_GF2m_mod_inv                                   output.o
BN_GF2m_mod_inv_arr                               output.o
BN_GF2m_mod_mul                                   output.o
BN_GF2m_mod_mul_arr                               output.o
BN_GF2m_mod_solve_quad                            output.o
BN_GF2m_mod_solve_quad_arr                        output.o
BN_GF2m_mod_sqr                                   output.o
BN_GF2m_mod_sqr_arr                               output.o
BN_GF2m_mod_sqrt                                  output.o
BN_GF2m_mod_sqrt_arr                              output.o
BN_GF2m_poly2arr                                  output.o
BN_MONT_CTX_copy                                  output.o
BN_MONT_CTX_free                                  output.o
BN_MONT_CTX_init                                  output.o
BN_MONT_CTX_new                                   output.o
BN_MONT_CTX_set                                   output.o
BN_MONT_CTX_set_locked                            output.o
BN_RECP_CTX_free                                  output.o
BN_RECP_CTX_init                                  output.o
BN_RECP_CTX_new                                   output.o
BN_RECP_CTX_set                                   output.o
BN_add                                            output.o
BN_add_word                                       output.o
BN_asc2bn                                         output.o
BN_bin2bn                                         output.o
BN_bn2bin                                         output.o
BN_bn2dec                                         output.o
BN_bn2hex                                         output.o
BN_bntest_rand                                    output.o
BN_clear                                          output.o
BN_clear_bit                                      output.o
BN_clear_free                                     output.o
BN_cmp                                            output.o
BN_copy                                           output.o
BN_dec2bn                                         output.o
BN_div                                            output.o
BN_div_recp                                       output.o
BN_div_word                                       output.o
BN_dup                                            output.o
BN_exp                                            output.o
BN_free                                           output.o
BN_from_montgomery                                output.o
BN_gcd                                            output.o
BN_generate_prime_ex                              output.o
BN_get0_nist_prime_192                            output.o
BN_get0_nist_prime_224                            output.o
BN_get0_nist_prime_256                            output.o
BN_get0_nist_prime_384                            output.o
BN_get0_nist_prime_521                            output.o
BN_get_params                                     output.o
BN_get_word                                       output.o
BN_hex2bn                                         output.o
BN_init                                           output.o
BN_is_bit_set                                     output.o
BN_is_prime_ex                                    output.o
BN_is_prime_fasttest_ex                           output.o
BN_kronecker                                      output.o
BN_lshift                                         output.o
BN_lshift1                                        output.o
BN_mask_bits                                      output.o
BN_mod_add                                        output.o
BN_mod_add_quick                                  output.o
BN_mod_exp                                        output.o
BN_mod_exp2_mont                                  output.o
BN_mod_exp_mont                                   output.o
BN_mod_exp_mont_consttime                         output.o
BN_mod_exp_mont_word                              output.o
BN_mod_exp_recp                                   output.o
BN_mod_exp_simple                                 output.o
BN_mod_inverse                                    output.o
BN_mod_lshift                                     output.o
BN_mod_lshift1                                    output.o
BN_mod_lshift1_quick                              output.o
BN_mod_lshift_quick                               output.o
BN_mod_mul                                        output.o
BN_mod_mul_montgomery                             output.o
BN_mod_mul_reciprocal                             output.o
BN_mod_sqr                                        output.o
BN_mod_sqrt                                       output.o
BN_mod_sub                                        output.o
BN_mod_sub_quick                                  output.o
BN_mod_word                                       output.o
BN_mul                                            output.o
BN_mul_word                                       output.o
BN_new                                            output.o
BN_nist_mod_192                                   output.o
BN_nist_mod_224                                   output.o
BN_nist_mod_256                                   output.o
BN_nist_mod_384                                   output.o
BN_nist_mod_521                                   output.o
BN_nnmod                                          output.o
BN_num_bits                                       output.o
BN_num_bits_word                                  output.o
BN_options                                        output.o
BN_print                                          output.o
BN_pseudo_rand                                    output.o
BN_pseudo_rand_range                              output.o
BN_rand                                           output.o
BN_rand_range                                     output.o
BN_reciprocal                                     output.o
BN_rshift                                         output.o
BN_rshift1                                        output.o
BN_set_bit                                        output.o
BN_set_negative                                   output.o
BN_set_params                                     output.o
BN_set_word                                       output.o
BN_sqr                                            output.o
BN_sub                                            output.o
BN_sub_word                                       output.o
BN_swap                                           output.o
BN_to_ASN1_ENUMERATED                             output.o
BN_to_ASN1_INTEGER                                output.o
BN_uadd                                           output.o
BN_ucmp                                           output.o
BN_usub                                           output.o
BN_value_one                                      output.o
BN_version                                        output.o
BUF_MEM_free                                      output.o
BUF_MEM_grow                                      output.o
BUF_MEM_grow_clean                                output.o
BUF_MEM_new                                       output.o
BUF_memdup                                        output.o
BUF_reverse                                       output.o
BUF_strdup                                        output.o
BUF_strlcat                                       output.o
BUF_strlcpy                                       output.o
BUF_strndup                                       output.o
BlockSendCardT1                                   output.o
CAST_S_table0                                     output.o
CAST_S_table1                                     output.o
CAST_S_table2                                     output.o
CAST_S_table3                                     output.o
CAST_S_table4                                     output.o
CAST_S_table5                                     output.o
CAST_S_table6                                     output.o
CAST_S_table7                                     output.o
CAST_cbc_encrypt                                  output.o
CAST_cfb64_encrypt                                output.o
CAST_decrypt                                      output.o
CAST_ecb_encrypt                                  output.o
CAST_encrypt                                      output.o
CAST_ofb64_encrypt                                output.o
CAST_set_key                                      output.o
CAST_version                                      output.o
CBIGNUM_it                                        output.o
CERTIFICATEPOLICIES_free                          output.o
CERTIFICATEPOLICIES_it                            output.o
CERTIFICATEPOLICIES_new                           output.o
CMS_Attributes_Sign_it                            output.o
CMS_Attributes_Verify_it                          output.o
CMS_AuthenticatedData_it                          output.o
CMS_CertificateChoices_it                         output.o
CMS_CompressedData_it                             output.o
CMS_ContentInfo_free                              output.o
CMS_ContentInfo_it                                output.o
CMS_ContentInfo_new                               output.o
CMS_ContentInfo_print_ctx                         output.o
CMS_DigestedData_it                               output.o
CMS_EncapsulatedContentInfo_it                    output.o
CMS_EncryptedContentInfo_it                       output.o
CMS_EncryptedData_it                              output.o
CMS_EncryptedData_set1_key                        output.o
CMS_EnvelopedData_create                          output.o
CMS_EnvelopedData_it                              output.o
CMS_IssuerAndSerialNumber_it                      output.o
CMS_KEKIdentifier_it                              output.o
CMS_KEKRecipientInfo_it                           output.o
CMS_KeyAgreeRecipientIdentifier_it                output.o
CMS_KeyAgreeRecipientInfo_it                      output.o
CMS_KeyTransRecipientInfo_it                      output.o
CMS_OriginatorIdentifierOrKey_it                  output.o
CMS_OriginatorInfo_it                             output.o
CMS_OriginatorPublicKey_it                        output.o
CMS_OtherCertificateFormat_it                     output.o
CMS_OtherKeyAttribute_it                          output.o
CMS_OtherRecipientInfo_it                         output.o
CMS_OtherRevocationInfoFormat_it                  output.o
CMS_PasswordRecipientInfo_it                      output.o
CMS_ReceiptRequest_it                             output.o
CMS_Receipt_it                                    output.o
CMS_ReceiptsFrom_it                               output.o
CMS_RecipientEncryptedKey_it                      output.o
CMS_RecipientInfo_decrypt                         output.o
CMS_RecipientInfo_it                              output.o
CMS_RecipientInfo_kekri_get0_id                   output.o
CMS_RecipientInfo_kekri_id_cmp                    output.o
CMS_RecipientInfo_ktri_cert_cmp                   output.o
CMS_RecipientInfo_ktri_get0_algs                  output.o
CMS_RecipientInfo_ktri_get0_signer_id             output.o
CMS_RecipientInfo_set0_key                        output.o
CMS_RecipientInfo_set0_pkey                       output.o
CMS_RecipientInfo_type                            output.o
CMS_RecipientKeyIdentifier_it                     output.o
CMS_RevocationInfoChoice_it                       output.o
CMS_SignedData_init                               output.o
CMS_SignedData_it                                 output.o
CMS_SignerIdentifier_it                           output.o
CMS_SignerInfo_cert_cmp                           output.o
CMS_SignerInfo_get0_algs                          output.o
CMS_SignerInfo_get0_signer_id                     output.o
CMS_SignerInfo_it                                 output.o
CMS_SignerInfo_set1_signer_cert                   output.o
CMS_SignerInfo_sign                               output.o
CMS_SignerInfo_verify                             output.o
CMS_SignerInfo_verify_content                     output.o
CMS_add0_CertificateChoices                       output.o
CMS_add0_RevocationInfoChoice                     output.o
CMS_add0_cert                                     output.o
CMS_add0_crl                                      output.o
CMS_add0_recipient_key                            output.o
CMS_add1_cert                                     output.o
CMS_add1_crl                                      output.o
CMS_add1_recipient_cert                           output.o
CMS_add1_signer                                   output.o
CMS_add_simple_smimecap                           output.o
CMS_add_smimecap                                  output.o
CMS_add_standard_smimecap                         output.o
CMS_dataFinal                                     output.o
CMS_dataInit                                      output.o
CMS_get0_RecipientInfos                           output.o
CMS_get0_SignerInfos                              output.o
CMS_get0_content                                  output.o
CMS_get0_eContentType                             output.o
CMS_get0_signers                                  output.o
CMS_get0_type                                     output.o
CMS_get1_certs                                    output.o
CMS_get1_crls                                     output.o
CMS_is_detached                                   output.o
CMS_set1_eContentType                             output.o
CMS_set1_signers_certs                            output.o
CMS_set_detached                                  output.o
CMS_signed_add1_attr                              output.o
CMS_signed_add1_attr_by_NID                       output.o
CMS_signed_add1_attr_by_OBJ                       output.o
CMS_signed_add1_attr_by_txt                       output.o
CMS_signed_delete_attr                            output.o
CMS_signed_get0_data_by_OBJ                       output.o
CMS_signed_get_attr                               output.o
CMS_signed_get_attr_by_NID                        output.o
CMS_signed_get_attr_by_OBJ                        output.o
CMS_signed_get_attr_count                         output.o
CMS_stream                                        output.o
CMS_unsigned_add1_attr                            output.o
CMS_unsigned_add1_attr_by_NID                     output.o
CMS_unsigned_add1_attr_by_OBJ                     output.o
CMS_unsigned_add1_attr_by_txt                     output.o
CMS_unsigned_delete_attr                          output.o
CMS_unsigned_get0_data_by_OBJ                     output.o
CMS_unsigned_get_attr                             output.o
CMS_unsigned_get_attr_by_NID                      output.o
CMS_unsigned_get_attr_by_OBJ                      output.o
CMS_unsigned_get_attr_count                       output.o
CONF_def_version                                  output.o
CONF_dump_bio                                     output.o
CONF_free                                         output.o
CONF_get1_default_config_file                     output.o
CONF_get_number                                   output.o
CONF_get_section                                  output.o
CONF_get_string                                   output.o
CONF_imodule_get_flags                            output.o
CONF_imodule_get_module                           output.o
CONF_imodule_get_name                             output.o
CONF_imodule_get_usr_data                         output.o
CONF_imodule_get_value                            output.o
CONF_imodule_set_flags                            output.o
CONF_imodule_set_usr_data                         output.o
CONF_load                                         output.o
CONF_load_bio                                     output.o
CONF_module_add                                   output.o
CONF_module_get_usr_data                          output.o
CONF_module_set_usr_data                          output.o
CONF_modules_finish                               output.o
CONF_modules_free                                 output.o
CONF_modules_load                                 output.o
CONF_modules_load_file                            output.o
CONF_modules_unload                               output.o
CONF_parse_list                                   output.o
CONF_set_default_method                           output.o
CONF_set_nconf                                    output.o
CONF_version                                      output.o
CRL_DIST_POINTS_free                              output.o
CRL_DIST_POINTS_it                                output.o
CRL_DIST_POINTS_new                               output.o
CRYPTO_THREADID_cmp                               output.o
CRYPTO_THREADID_cpy                               output.o
CRYPTO_THREADID_current                           output.o
CRYPTO_THREADID_get_callback                      output.o
CRYPTO_THREADID_hash                              output.o
CRYPTO_THREADID_set_callback                      output.o
CRYPTO_THREADID_set_numeric                       output.o
CRYPTO_THREADID_set_pointer                       output.o
CRYPTO_add_lock                                   output.o
CRYPTO_cbc128_decrypt                             output.o
CRYPTO_cbc128_encrypt                             output.o
CRYPTO_cfb128_1_encrypt                           output.o
CRYPTO_cfb128_8_encrypt                           output.o
CRYPTO_cfb128_encrypt                             output.o
CRYPTO_cleanup_all_ex_data                        output.o
CRYPTO_dbg_free                                   output.o
CRYPTO_dbg_get_options                            output.o
CRYPTO_dbg_malloc                                 output.o
CRYPTO_dbg_realloc                                output.o
CRYPTO_dbg_set_options                            output.o
CRYPTO_destroy_dynlockid                          output.o
CRYPTO_dup_ex_data                                output.o
CRYPTO_ex_data_new_class                          output.o
CRYPTO_free                                       output.o
CRYPTO_free_ex_data                               output.o
CRYPTO_free_locked                                output.o
CRYPTO_get_add_lock_callback                      output.o
CRYPTO_get_dynlock_create_callback                output.o
CRYPTO_get_dynlock_destroy_callback               output.o
CRYPTO_get_dynlock_lock_callback                  output.o
CRYPTO_get_dynlock_value                          output.o
CRYPTO_get_ex_data                                output.o
CRYPTO_get_ex_data_implementation                 output.o
CRYPTO_get_ex_new_index                           output.o
CRYPTO_get_id_callback                            output.o
CRYPTO_get_lock_name                              output.o
CRYPTO_get_locked_mem_ex_functions                output.o
CRYPTO_get_locked_mem_functions                   output.o
CRYPTO_get_locking_callback                       output.o
CRYPTO_get_mem_debug_functions                    output.o
CRYPTO_get_mem_debug_options                      output.o
CRYPTO_get_mem_ex_functions                       output.o
CRYPTO_get_mem_functions                          output.o
CRYPTO_get_new_dynlockid                          output.o
CRYPTO_get_new_lockid                             output.o
CRYPTO_is_mem_check_on                            output.o
CRYPTO_lock                                       output.o
CRYPTO_malloc                                     output.o
CRYPTO_malloc_locked                              output.o
CRYPTO_mem_ctrl                                   output.o
CRYPTO_mem_leaks                                  output.o
CRYPTO_mem_leaks_cb                               output.o
CRYPTO_memcmp                                     output.o
CRYPTO_new_ex_data                                output.o
CRYPTO_num_locks                                  output.o
CRYPTO_ofb128_encrypt                             output.o
CRYPTO_pop_info                                   output.o
CRYPTO_push_info_                                 output.o
CRYPTO_realloc                                    output.o
CRYPTO_realloc_clean                              output.o
CRYPTO_remalloc                                   output.o
CRYPTO_remove_all_info                            output.o
CRYPTO_set_add_lock_callback                      output.o
CRYPTO_set_dynlock_create_callback                output.o
CRYPTO_set_dynlock_destroy_callback               output.o
CRYPTO_set_dynlock_lock_callback                  output.o
CRYPTO_set_ex_data                                output.o
CRYPTO_set_ex_data_implementation                 output.o
CRYPTO_set_id_callback                            output.o
CRYPTO_set_locked_mem_ex_functions                output.o
CRYPTO_set_locked_mem_functions                   output.o
CRYPTO_set_locking_callback                       output.o
CRYPTO_set_mem_debug_functions                    output.o
CRYPTO_set_mem_debug_options                      output.o
CRYPTO_set_mem_ex_functions                       output.o
CRYPTO_set_mem_functions                          output.o
CRYPTO_strdup                                     output.o
CRYPTO_thread_id                                  output.o
C_CloseAllSessions                                output.o
C_CloseSession                                    output.o
C_CreateObject                                    output.o
C_DestroyObject                                   output.o
C_DigestFinal                                     output.o
C_DigestInit                                      output.o
C_DigestUpdate                                    output.o
C_Finalize                                        output.o
C_FindObjects                                     output.o
C_FindObjectsFinal                                output.o
C_FindObjectsInit                                 output.o
C_GetAttributeValue                               output.o
C_GetCardStatus                                   output.o
C_GetFunctionList                                 output.o
C_GetInfo                                         output.o
C_GetMechanismInfo                                output.o
C_GetMechanismList                                output.o
C_GetSessionInfo                                  output.o
C_GetSlotInfo                                     output.o
C_GetSlotList                                     output.o
C_GetTokenInfo                                    output.o
C_Initialize                                      output.o
C_Login                                           output.o
C_Logout                                          output.o
C_OpenSession                                     output.o
C_SetAttributeValue                               output.o
C_Sign                                            output.o
C_SignInit                                        output.o
C_Verify                                          output.o
C_VerifyInit                                      output.o
CardConnect                                       output.o
CardDisconnect                                    output.o
CardEstablishContext                              output.o
CardListReaders                                   output.o
CardMechanical                                    output.o
CardReleaseContext                                output.o
CardStateConfirm                                  output.o
CardStatus                                        output.o
CardTransmit                                      output.o
CloseUSB                                          output.o
DES_SPtrans                                       output.o
DES_cfb64_encrypt                                 output.o
DES_cfb_encrypt                                   output.o
DES_check_key_parity                              output.o
DES_decrypt3                                      output.o
DES_ecb3_encrypt                                  output.o
DES_ecb_encrypt                                   output.o
DES_ede3_cbc_encrypt                              output.o
DES_ede3_cfb64_encrypt                            output.o
DES_ede3_cfb_encrypt                              output.o
DES_ede3_ofb64_encrypt                            output.o
DES_encrypt1                                      output.o
DES_encrypt2                                      output.o
DES_encrypt3                                      output.o
DES_is_weak_key                                   output.o
DES_key_sched                                     output.o
DES_ncbc_encrypt                                  output.o
DES_ofb64_encrypt                                 output.o
DES_options                                       output.o
DES_random_key                                    output.o
DES_set_key                                       output.o
DES_set_key_checked                               output.o
DES_set_key_unchecked                             output.o
DES_set_odd_parity                                output.o
DES_xcbc_encrypt                                  output.o
DH_OpenSSL                                        output.o
DH_check                                          output.o
DH_check_pub_key                                  output.o
DH_compute_key                                    output.o
DH_free                                           output.o
DH_generate_key                                   output.o
DH_generate_parameters_ex                         output.o
DH_get_default_method                             output.o
DH_get_ex_data                                    output.o
DH_get_ex_new_index                               output.o
DH_new                                            output.o
DH_new_method                                     output.o
DH_set_default_method                             output.o
DH_set_ex_data                                    output.o
DH_set_method                                     output.o
DH_size                                           output.o
DH_up_ref                                         output.o
DH_version                                        output.o
DHparams_dup                                      output.o
DHparams_it                                       output.o
DHparams_print                                    output.o
DI                                                output.o
DIRECTORYSTRING_free                              output.o
DIRECTORYSTRING_it                                output.o
DIRECTORYSTRING_new                               output.o
DISPLAYTEXT_free                                  output.o
DISPLAYTEXT_it                                    output.o
DISPLAYTEXT_new                                   output.o
DIST_POINT_NAME_free                              output.o
DIST_POINT_NAME_it                                output.o
DIST_POINT_NAME_new                               output.o
DIST_POINT_free                                   output.o
DIST_POINT_it                                     output.o
DIST_POINT_new                                    output.o
DIST_POINT_set_dpname                             output.o
DSAPrivateKey_it                                  output.o
DSAPublicKey_it                                   output.o
DSA_OpenSSL                                       output.o
DSA_SIG_free                                      output.o
DSA_SIG_it                                        output.o
DSA_SIG_new                                       output.o
DSA_do_sign                                       output.o
DSA_do_verify                                     output.o
DSA_dup_DH                                        output.o
DSA_free                                          output.o
DSA_generate_key                                  output.o
DSA_generate_parameters_ex                        output.o
DSA_get_default_method                            output.o
DSA_get_ex_data                                   output.o
DSA_get_ex_new_index                              output.o
DSA_new                                           output.o
DSA_new_method                                    output.o
DSA_set_default_method                            output.o
DSA_set_ex_data                                   output.o
DSA_set_method                                    output.o
DSA_sign                                          output.o
DSA_sign_setup                                    output.o
DSA_size                                          output.o
DSA_up_ref                                        output.o
DSA_verify                                        output.o
DSA_version                                       output.o
DSAparams_dup                                     output.o
DSAparams_it                                      output.o
DSO_METHOD_null                                   output.o
DSO_METHOD_openssl                                output.o
DSO_bind_func                                     output.o
DSO_bind_var                                      output.o
DSO_convert_filename                              output.o
DSO_ctrl                                          output.o
DSO_flags                                         output.o
DSO_free                                          output.o
DSO_get_default_method                            output.o
DSO_get_filename                                  output.o
DSO_get_loaded_filename                           output.o
DSO_get_method                                    output.o
DSO_global_lookup                                 output.o
DSO_load                                          output.o
DSO_merge                                         output.o
DSO_new                                           output.o
DSO_new_method                                    output.o
DSO_pathbyaddr                                    output.o
DSO_set_default_method                            output.o
DSO_set_filename                                  output.o
DSO_set_method                                    output.o
DSO_set_name_converter                            output.o
DSO_up_ref                                        output.o
DelElem                                           output.o
DestroyAttribute                                  output.o
DestroyElem                                       output.o
DestroyList                                       output.o
DestroySessionData                                output.o
DestroySlotData                                   output.o
DestroyTlvData                                    output.o
DestroyTokenData                                  output.o
ECDH_OpenSSL                                      output.o
ECDH_compute_key                                  output.o
ECDH_get_default_method                           output.o
ECDH_get_ex_data                                  output.o
ECDH_get_ex_new_index                             output.o
ECDH_set_default_method                           output.o
ECDH_set_ex_data                                  output.o
ECDH_set_method                                   output.o
ECDH_version                                      output.o
ECDSA_OpenSSL                                     output.o
ECDSA_SIG_free                                    output.o
ECDSA_SIG_it                                      output.o
ECDSA_SIG_new                                     output.o
ECDSA_do_sign                                     output.o
ECDSA_do_sign_ex                                  output.o
ECDSA_do_verify                                   output.o
ECDSA_get_default_method                          output.o
ECDSA_get_ex_data                                 output.o
ECDSA_get_ex_new_index                            output.o
ECDSA_set_default_method                          output.o
ECDSA_set_ex_data                                 output.o
ECDSA_set_method                                  output.o
ECDSA_sign                                        output.o
ECDSA_sign_ex                                     output.o
ECDSA_sign_setup                                  output.o
ECDSA_size                                        output.o
ECDSA_verify                                      output.o
ECDSA_version                                     output.o
ECPARAMETERS_free                                 output.o
ECPARAMETERS_it                                   output.o
ECPARAMETERS_new                                  output.o
ECPKPARAMETERS_free                               output.o
ECPKPARAMETERS_it                                 output.o
ECPKPARAMETERS_new                                output.o
ECPKParameters_print                              output.o
ECParameters_print                                output.o
EC_EX_DATA_clear_free_all_data                    output.o
EC_EX_DATA_clear_free_data                        output.o
EC_EX_DATA_free_all_data                          output.o
EC_EX_DATA_free_data                              output.o
EC_EX_DATA_get_data                               output.o
EC_EX_DATA_set_data                               output.o
EC_GF2m_simple_method                             output.o
EC_GFp_mont_method                                output.o
EC_GFp_nist_method                                output.o
EC_GFp_simple_method                              output.o
EC_GROUP_check_discriminant                       output.o
EC_GROUP_clear_free                               output.o
EC_GROUP_cmp                                      output.o
EC_GROUP_copy                                     output.o
EC_GROUP_dup                                      output.o
EC_GROUP_free                                     output.o
EC_GROUP_get0_generator                           output.o
EC_GROUP_get0_seed                                output.o
EC_GROUP_get_asn1_flag                            output.o
EC_GROUP_get_basis_type                           output.o
EC_GROUP_get_cofactor                             output.o
EC_GROUP_get_curve_GF2m                           output.o
EC_GROUP_get_curve_GFp                            output.o
EC_GROUP_get_curve_name                           output.o
EC_GROUP_get_degree                               output.o
EC_GROUP_get_order                                output.o
EC_GROUP_get_pentanomial_basis                    output.o
EC_GROUP_get_point_conversion_form                output.o
EC_GROUP_get_seed_len                             output.o
EC_GROUP_get_trinomial_basis                      output.o
EC_GROUP_have_precompute_mult                     output.o
EC_GROUP_method_of                                output.o
EC_GROUP_new                                      output.o
EC_GROUP_new_by_curve_name                        output.o
EC_GROUP_new_curve_GF2m                           output.o
EC_GROUP_new_curve_GFp                            output.o
EC_GROUP_precompute_mult                          output.o
EC_GROUP_set_asn1_flag                            output.o
EC_GROUP_set_curve_GF2m                           output.o
EC_GROUP_set_curve_GFp                            output.o
EC_GROUP_set_curve_name                           output.o
EC_GROUP_set_generator                            output.o
EC_GROUP_set_point_conversion_form                output.o
EC_GROUP_set_seed                                 output.o
EC_KEY_check_key                                  output.o
EC_KEY_copy                                       output.o
EC_KEY_dup                                        output.o
EC_KEY_free                                       output.o
EC_KEY_generate_key                               output.o
EC_KEY_get0_group                                 output.o
EC_KEY_get0_private_key                           output.o
EC_KEY_get0_public_key                            output.o
EC_KEY_get_conv_form                              output.o
EC_KEY_get_enc_flags                              output.o
EC_KEY_get_key_method_data                        output.o
EC_KEY_insert_key_method_data                     output.o
EC_KEY_new                                        output.o
EC_KEY_new_by_curve_name                          output.o
EC_KEY_precompute_mult                            output.o
EC_KEY_print                                      output.o
EC_KEY_set_asn1_flag                              output.o
EC_KEY_set_conv_form                              output.o
EC_KEY_set_enc_flags                              output.o
EC_KEY_set_group                                  output.o
EC_KEY_set_private_key                            output.o
EC_KEY_set_public_key                             output.o
EC_KEY_up_ref                                     output.o
EC_METHOD_get_field_type                          output.o
EC_POINT_add                                      output.o
EC_POINT_bn2point                                 output.o
EC_POINT_clear_free                               output.o
EC_POINT_cmp                                      output.o
EC_POINT_copy                                     output.o
EC_POINT_dbl                                      output.o
EC_POINT_dup                                      output.o
EC_POINT_free                                     output.o
EC_POINT_get_Jprojective_coordinates_GFp          output.o
EC_POINT_get_affine_coordinates_GF2m              output.o
EC_POINT_get_affine_coordinates_GFp               output.o
EC_POINT_hex2point                                output.o
EC_POINT_invert                                   output.o
EC_POINT_is_at_infinity                           output.o
EC_POINT_is_on_curve                              output.o
EC_POINT_make_affine                              output.o
EC_POINT_method_of                                output.o
EC_POINT_mul                                      output.o
EC_POINT_new                                      output.o
EC_POINT_oct2point                                output.o
EC_POINT_point2bn                                 output.o
EC_POINT_point2hex                                output.o
EC_POINT_point2oct                                output.o
EC_POINT_set_Jprojective_coordinates_GFp          output.o
EC_POINT_set_affine_coordinates_GF2m              output.o
EC_POINT_set_affine_coordinates_GFp               output.o
EC_POINT_set_compressed_coordinates_GF2m          output.o
EC_POINT_set_compressed_coordinates_GFp           output.o
EC_POINT_set_to_infinity                          output.o
EC_POINTs_make_affine                             output.o
EC_POINTs_mul                                     output.o
EC_PRIVATEKEY_free                                output.o
EC_PRIVATEKEY_it                                  output.o
EC_PRIVATEKEY_new                                 output.o
EC_get_builtin_curves                             output.o
EDIPARTYNAME_free                                 output.o
EDIPARTYNAME_it                                   output.o
EDIPARTYNAME_new                                  output.o
EHDestroyEventHandler                             output.o
EHInitEventHandler                                output.o
EHStatusHandler                                   output.o
ERR_add_error_data                                output.o
ERR_clear_error                                   output.o
ERR_error_string                                  output.o
ERR_error_string_n                                output.o
ERR_free_strings                                  output.o
ERR_func_error_string                             output.o
ERR_get_err_state_table                           output.o
ERR_get_error                                     output.o
ERR_get_error_line                                output.o
ERR_get_error_line_data                           output.o
ERR_get_implementation                            output.o
ERR_get_next_error_library                        output.o
ERR_get_state                                     output.o
ERR_get_string_table                              output.o
ERR_lib_error_string                              output.o
ERR_load_ASN1_strings                             output.o
ERR_load_BIO_strings                              output.o
ERR_load_BN_strings                               output.o
ERR_load_BUF_strings                              output.o
ERR_load_CMS_strings                              output.o
ERR_load_COMP_strings                             output.o
ERR_load_CONF_strings                             output.o
ERR_load_CRYPTO_strings                           output.o
ERR_load_DH_strings                               output.o
ERR_load_DSA_strings                              output.o
ERR_load_DSO_strings                              output.o
ERR_load_ECDH_strings                             output.o
ERR_load_ECDSA_strings                            output.o
ERR_load_EC_strings                               output.o
ERR_load_ERR_strings                              output.o
ERR_load_EVP_strings                              output.o
ERR_load_OBJ_strings                              output.o
ERR_load_OCSP_strings                             output.o
ERR_load_PEM_strings                              output.o
ERR_load_PKCS12_strings                           output.o
ERR_load_PKCS7_strings                            output.o
ERR_load_RAND_strings                             output.o
ERR_load_RSA_strings                              output.o
ERR_load_TS_strings                               output.o
ERR_load_UI_strings                               output.o
ERR_load_X509V3_strings                           output.o
ERR_load_X509_strings                             output.o
ERR_load_crypto_strings                           output.o
ERR_load_strings                                  output.o
ERR_peek_error                                    output.o
ERR_peek_error_line                               output.o
ERR_peek_error_line_data                          output.o
ERR_peek_last_error                               output.o
ERR_peek_last_error_line                          output.o
ERR_peek_last_error_line_data                     output.o
ERR_pop_to_mark                                   output.o
ERR_print_errors                                  output.o
ERR_print_errors_cb                               output.o
ERR_put_error                                     output.o
ERR_reason_error_string                           output.o
ERR_release_err_state_table                       output.o
ERR_remove_state                                  output.o
ERR_remove_thread_state                           output.o
ERR_set_error_data                                output.o
ERR_set_implementation                            output.o
ERR_set_mark                                      output.o
ERR_unload_strings                                output.o
EVP_BytesToKey                                    output.o
EVP_CIPHER_CTX_block_size                         output.o
EVP_CIPHER_CTX_cipher                             output.o
EVP_CIPHER_CTX_cleanup                            output.o
EVP_CIPHER_CTX_clear_flags                        output.o
EVP_CIPHER_CTX_copy                               output.o
EVP_CIPHER_CTX_ctrl                               output.o
EVP_CIPHER_CTX_flags                              output.o
EVP_CIPHER_CTX_free                               output.o
EVP_CIPHER_CTX_get_app_data                       output.o
EVP_CIPHER_CTX_init                               output.o
EVP_CIPHER_CTX_iv_length                          output.o
EVP_CIPHER_CTX_key_length                         output.o
EVP_CIPHER_CTX_new                                output.o
EVP_CIPHER_CTX_nid                                output.o
EVP_CIPHER_CTX_rand_key                           output.o
EVP_CIPHER_CTX_set_app_data                       output.o
EVP_CIPHER_CTX_set_flags                          output.o
EVP_CIPHER_CTX_set_key_length                     output.o
EVP_CIPHER_CTX_set_padding                        output.o
EVP_CIPHER_CTX_test_flags                         output.o
EVP_CIPHER_asn1_to_param                          output.o
EVP_CIPHER_block_size                             output.o
EVP_CIPHER_do_all                                 output.o
EVP_CIPHER_do_all_sorted                          output.o
EVP_CIPHER_flags                                  output.o
EVP_CIPHER_get_asn1_iv                            output.o
EVP_CIPHER_iv_length                              output.o
EVP_CIPHER_key_length                             output.o
EVP_CIPHER_nid                                    output.o
EVP_CIPHER_param_to_asn1                          output.o
EVP_CIPHER_set_asn1_iv                            output.o
EVP_CIPHER_type                                   output.o
EVP_Cipher                                        output.o
EVP_CipherFinal                                   output.o
EVP_CipherFinal_ex                                output.o
EVP_CipherInit                                    output.o
EVP_CipherInit_ex                                 output.o
EVP_CipherUpdate                                  output.o
EVP_DecodeBlock                                   output.o
EVP_DecodeFinal                                   output.o
EVP_DecodeInit                                    output.o
EVP_DecodeUpdate                                  output.o
EVP_DecryptFinal                                  output.o
EVP_DecryptFinal_ex                               output.o
EVP_DecryptInit                                   output.o
EVP_DecryptInit_ex                                output.o
EVP_DecryptUpdate                                 output.o
EVP_Digest                                        output.o
EVP_DigestFinal                                   output.o
EVP_DigestFinal_ex                                output.o
EVP_DigestInit                                    output.o
EVP_DigestInit_ex                                 output.o
EVP_DigestSignFinal                               output.o
EVP_DigestSignInit                                output.o
EVP_DigestUpdate                                  output.o
EVP_DigestVerifyFinal                             output.o
EVP_DigestVerifyInit                              output.o
EVP_EncodeBlock                                   output.o
EVP_EncodeFinal                                   output.o
EVP_EncodeInit                                    output.o
EVP_EncodeUpdate                                  output.o
EVP_EncryptFinal                                  output.o
EVP_EncryptFinal_ex                               output.o
EVP_EncryptInit                                   output.o
EVP_EncryptInit_ex                                output.o
EVP_EncryptUpdate                                 output.o
EVP_MD_CTX_cleanup                                output.o
EVP_MD_CTX_clear_flags                            output.o
EVP_MD_CTX_copy                                   output.o
EVP_MD_CTX_copy_ex                                output.o
EVP_MD_CTX_create                                 output.o
EVP_MD_CTX_destroy                                output.o
EVP_MD_CTX_init                                   output.o
EVP_MD_CTX_md                                     output.o
EVP_MD_CTX_set_flags                              output.o
EVP_MD_CTX_test_flags                             output.o
EVP_MD_block_size                                 output.o
EVP_MD_do_all                                     output.o
EVP_MD_do_all_sorted                              output.o
EVP_MD_flags                                      output.o
EVP_MD_pkey_type                                  output.o
EVP_MD_size                                       output.o
EVP_MD_type                                       output.o
EVP_PBE_CipherInit                                output.o
EVP_PBE_alg_add                                   output.o
EVP_PBE_alg_add_type                              output.o
EVP_PBE_cleanup                                   output.o
EVP_PBE_find                                      output.o
EVP_PKCS82PKEY                                    output.o
EVP_PKEY2PKCS8                                    output.o
EVP_PKEY2PKCS8_broken                             output.o
EVP_PKEY_CTX_ctrl                                 output.o
EVP_PKEY_CTX_ctrl_str                             output.o
EVP_PKEY_CTX_dup                                  output.o
EVP_PKEY_CTX_free                                 output.o
EVP_PKEY_CTX_get0_peerkey                         output.o
EVP_PKEY_CTX_get0_pkey                            output.o
EVP_PKEY_CTX_get_app_data                         output.o
EVP_PKEY_CTX_get_cb                               output.o
EVP_PKEY_CTX_get_data                             output.o
EVP_PKEY_CTX_get_keygen_info                      output.o
EVP_PKEY_CTX_get_operation                        output.o
EVP_PKEY_CTX_new                                  output.o
EVP_PKEY_CTX_new_id                               output.o
EVP_PKEY_CTX_set0_keygen_info                     output.o
EVP_PKEY_CTX_set_app_data                         output.o
EVP_PKEY_CTX_set_cb                               output.o
EVP_PKEY_CTX_set_data                             output.o
EVP_PKEY_add1_attr                                output.o
EVP_PKEY_add1_attr_by_NID                         output.o
EVP_PKEY_add1_attr_by_OBJ                         output.o
EVP_PKEY_add1_attr_by_txt                         output.o
EVP_PKEY_asn1_add0                                output.o
EVP_PKEY_asn1_add_alias                           output.o
EVP_PKEY_asn1_copy                                output.o
EVP_PKEY_asn1_find                                output.o
EVP_PKEY_asn1_find_str                            output.o
EVP_PKEY_asn1_free                                output.o
EVP_PKEY_asn1_get0                                output.o
EVP_PKEY_asn1_get0_info                           output.o
EVP_PKEY_asn1_get_count                           output.o
EVP_PKEY_asn1_new                                 output.o
EVP_PKEY_asn1_set_ctrl                            output.o
EVP_PKEY_asn1_set_free                            output.o
EVP_PKEY_asn1_set_param                           output.o
EVP_PKEY_asn1_set_private                         output.o
EVP_PKEY_asn1_set_public                          output.o
EVP_PKEY_assign                                   output.o
EVP_PKEY_base_id                                  output.o
EVP_PKEY_bits                                     output.o
EVP_PKEY_cmp                                      output.o
EVP_PKEY_cmp_parameters                           output.o
EVP_PKEY_copy_parameters                          output.o
EVP_PKEY_decrypt                                  output.o
EVP_PKEY_decrypt_init                             output.o
EVP_PKEY_delete_attr                              output.o
EVP_PKEY_derive                                   output.o
EVP_PKEY_derive_init                              output.o
EVP_PKEY_derive_set_peer                          output.o
EVP_PKEY_encrypt                                  output.o
EVP_PKEY_encrypt_init                             output.o
EVP_PKEY_free                                     output.o
EVP_PKEY_get0                                     output.o
EVP_PKEY_get0_asn1                                output.o
EVP_PKEY_get1_DH                                  output.o
EVP_PKEY_get1_DSA                                 output.o
EVP_PKEY_get1_EC_KEY                              output.o
EVP_PKEY_get1_RSA                                 output.o
EVP_PKEY_get_attr                                 output.o
EVP_PKEY_get_attr_by_NID                          output.o
EVP_PKEY_get_attr_by_OBJ                          output.o
EVP_PKEY_get_attr_count                           output.o
EVP_PKEY_get_default_digest_nid                   output.o
EVP_PKEY_id                                       output.o
EVP_PKEY_keygen                                   output.o
EVP_PKEY_keygen_init                              output.o
EVP_PKEY_meth_add0                                output.o
EVP_PKEY_meth_find                                output.o
EVP_PKEY_meth_free                                output.o
EVP_PKEY_meth_new                                 output.o
EVP_PKEY_meth_set_cleanup                         output.o
EVP_PKEY_meth_set_copy                            output.o
EVP_PKEY_meth_set_ctrl                            output.o
EVP_PKEY_meth_set_decrypt                         output.o
EVP_PKEY_meth_set_derive                          output.o
EVP_PKEY_meth_set_encrypt                         output.o
EVP_PKEY_meth_set_init                            output.o
EVP_PKEY_meth_set_keygen                          output.o
EVP_PKEY_meth_set_paramgen                        output.o
EVP_PKEY_meth_set_sign                            output.o
EVP_PKEY_meth_set_signctx                         output.o
EVP_PKEY_meth_set_verify                          output.o
EVP_PKEY_meth_set_verify_recover                  output.o
EVP_PKEY_meth_set_verifyctx                       output.o
EVP_PKEY_missing_parameters                       output.o
EVP_PKEY_new                                      output.o
EVP_PKEY_new_mac_key                              output.o
EVP_PKEY_paramgen                                 output.o
EVP_PKEY_paramgen_init                            output.o
EVP_PKEY_print_params                             output.o
EVP_PKEY_print_private                            output.o
EVP_PKEY_print_public                             output.o
EVP_PKEY_save_parameters                          output.o
EVP_PKEY_set1_DH                                  output.o
EVP_PKEY_set1_DSA                                 output.o
EVP_PKEY_set1_EC_KEY                              output.o
EVP_PKEY_set1_RSA                                 output.o
EVP_PKEY_set_type                                 output.o
EVP_PKEY_set_type_str                             output.o
EVP_PKEY_sign                                     output.o
EVP_PKEY_sign_init                                output.o
EVP_PKEY_size                                     output.o
EVP_PKEY_type                                     output.o
EVP_PKEY_verify                                   output.o
EVP_PKEY_verify_init                              output.o
EVP_PKEY_verify_recover                           output.o
EVP_PKEY_verify_recover_init                      output.o
EVP_SignFinal                                     output.o
EVP_VerifyFinal                                   output.o
EVP_add_cipher                                    output.o
EVP_add_digest                                    output.o
EVP_aes_128_cbc                                   output.o
EVP_aes_128_cfb1                                  output.o
EVP_aes_128_cfb128                                output.o
EVP_aes_128_cfb8                                  output.o
EVP_aes_128_ecb                                   output.o
EVP_aes_128_ofb                                   output.o
EVP_aes_192_cbc                                   output.o
EVP_aes_192_cfb1                                  output.o
EVP_aes_192_cfb128                                output.o
EVP_aes_192_cfb8                                  output.o
EVP_aes_192_ecb                                   output.o
EVP_aes_192_ofb                                   output.o
EVP_aes_256_cbc                                   output.o
EVP_aes_256_cfb1                                  output.o
EVP_aes_256_cfb128                                output.o
EVP_aes_256_cfb8                                  output.o
EVP_aes_256_ecb                                   output.o
EVP_aes_256_ofb                                   output.o
EVP_bf_cbc                                        output.o
EVP_bf_cfb64                                      output.o
EVP_bf_ecb                                        output.o
EVP_bf_ofb                                        output.o
EVP_cast5_cbc                                     output.o
EVP_cast5_cfb64                                   output.o
EVP_cast5_ecb                                     output.o
EVP_cast5_ofb                                     output.o
EVP_cleanup                                       output.o
EVP_des_cbc                                       output.o
EVP_des_cfb1                                      output.o
EVP_des_cfb64                                     output.o
EVP_des_cfb8                                      output.o
EVP_des_ecb                                       output.o
EVP_des_ede                                       output.o
EVP_des_ede3                                      output.o
EVP_des_ede3_cbc                                  output.o
EVP_des_ede3_cfb1                                 output.o
EVP_des_ede3_cfb64                                output.o
EVP_des_ede3_cfb8                                 output.o
EVP_des_ede3_ecb                                  output.o
EVP_des_ede3_ofb                                  output.o
EVP_des_ede_cbc                                   output.o
EVP_des_ede_cfb64                                 output.o
EVP_des_ede_ecb                                   output.o
EVP_des_ede_ofb                                   output.o
EVP_des_ofb                                       output.o
EVP_desx_cbc                                      output.o
EVP_dss                                           output.o
EVP_dss1                                          output.o
EVP_ecdsa                                         output.o
EVP_get_cipherbyname                              output.o
EVP_get_digestbyname                              output.o
EVP_get_pw_prompt                                 output.o
EVP_idea_cbc                                      output.o
EVP_idea_cfb64                                    output.o
EVP_idea_ecb                                      output.o
EVP_idea_ofb                                      output.o
EVP_md4                                           output.o
EVP_md5                                           output.o
EVP_rc2_40_cbc                                    output.o
EVP_rc2_64_cbc                                    output.o
EVP_rc2_cbc                                       output.o
EVP_rc2_cfb64                                     output.o
EVP_rc2_ecb                                       output.o
EVP_rc2_ofb                                       output.o
EVP_rc4                                           output.o
EVP_rc4_40                                        output.o
EVP_read_pw_string                                output.o
EVP_read_pw_string_min                            output.o
EVP_ripemd160                                     output.o
EVP_set_pw_prompt                                 output.o
EVP_sha                                           output.o
EVP_sha1                                          output.o
EVP_sha224                                        output.o
EVP_sha256                                        output.o
EVP_sha384                                        output.o
EVP_sha512                                        output.o
EVP_version                                       output.o
EVP_whirlpool                                     output.o
EXTENDED_KEY_USAGE_free                           output.o
EXTENDED_KEY_USAGE_it                             output.o
EXTENDED_KEY_USAGE_new                            output.o
ExchangePPSData                                   output.o
FI                                                output.o
FindBaudRateTable                                 output.o
GENERAL_NAMES_free                                output.o
GENERAL_NAMES_it                                  output.o
GENERAL_NAMES_new                                 output.o
GENERAL_NAME_cmp                                  output.o
GENERAL_NAME_dup                                  output.o
GENERAL_NAME_free                                 output.o
GENERAL_NAME_get0_otherName                       output.o
GENERAL_NAME_get0_value                           output.o
GENERAL_NAME_it                                   output.o
GENERAL_NAME_new                                  output.o
GENERAL_NAME_print                                output.o
GENERAL_NAME_set0_othername                       output.o
GENERAL_NAME_set0_value                           output.o
GENERAL_SUBTREE_free                              output.o
GENERAL_SUBTREE_it                                output.o
GENERAL_SUBTREE_new                               output.o
GetAttrValType                                    output.o
GetBWICWIData                                     output.o
GetCardStatus                                     output.o
GetDirDataByTlv                                   output.o
GetElem                                           output.o
GetICCardData                                     output.o
GetIFSCData                                       output.o
GetLength                                         output.o
GetOdfDataByTlv                                   output.o
GetTlvByBuf                                       output.o
GetTokenDataByTlv                                 output.o
GetUlByByte                                       output.o
GetUlByTxt                                        output.o
GetValueData                                      output.o
GetVerByTex                                       output.o
HMAC                                              output.o
HMAC_CTX_cleanup                                  output.o
HMAC_CTX_copy                                     output.o
HMAC_CTX_init                                     output.o
HMAC_CTX_set_flags                                output.o
HMAC_Final                                        output.o
HMAC_Init                                         output.o
HMAC_Init_ex                                      output.o
HMAC_Update                                       output.o
HPSearchHotPluggables                             output.o
IDEA_version                                      output.o
IDMan_CheckCardStatus                             output.o
IDMan_CmCheckCRL                                  output.o
IDMan_CmChgRSA                                    output.o
IDMan_CmGetCertificateSign                        output.o
IDMan_CmGetDN                                     output.o
IDMan_CmGetPublicKey                              output.o
IDMan_CmMakeRand                                  output.o
IDMan_CmMkHash                                    output.o
IDMan_CmPadding                                   output.o
IDMan_CmPadding2                                  output.o
IDMan_EncryptByIndex                              output.o
IDMan_IPCheckCrlPkcX                              output.o
IDMan_IPCheckPKC                                  output.o
IDMan_IPCheckSignature                            output.o
IDMan_IPCrSignature                               output.o
IDMan_IPFinalize                                  output.o
IDMan_IPFinalizeReader                            output.o
IDMan_IPIdPassListMalloc                          output.o
IDMan_IPInitialize                                output.o
IDMan_IPInitializeReader                          output.o
IDMan_IPMkPublicKeyObj                            output.o
IDMan_IPMkRandHash                                output.o
IDMan_IPRetJudgment                               output.o
IDMan_IPSignatureVerify                           output.o
IDMan_IPgCIndexParamChk                           output.o
IDMan_IPgCParamChk                                output.o
IDMan_IPgIdxSParamChk                             output.o
IDMan_IPgSParamChk                                output.o
IDMan_IPgetCertIdxPKCS                            output.o
IDMan_IPgetCertPKCS                               output.o
IDMan_IPgetCertPkeyIdxPKCSx                       output.o
IDMan_IPgetCertPkeyPKCSx                          output.o
IDMan_IPgetCertPkeyPKCSy                          output.o
IDMan_IPgetHash                                   output.o
IDMan_IPgetMakeRandData                           output.o
IDMan_IPgetPrivateKey                             output.o
IDMan_IPgetPrivateKeyPKCSx                        output.o
IDMan_IPuAPKCS11IdxParamChk                       output.o
IDMan_IPuAPKCS11ParamChk                          output.o
IDMan_IPvSIdxParamChk                             output.o
IDMan_IPvSParamChk                                output.o
IDMan_PaddingParamChk                             output.o
IDMan_SCardConnect                                output.o
IDMan_SCardDisconnect                             output.o
IDMan_SCardEstablishContext                       output.o
IDMan_SCardListReaders                            output.o
IDMan_SCardReleaseContext                         output.o
IDMan_SCardSetBinay                               output.o
IDMan_SCardSizeLongToChar                         output.o
IDMan_SCardStatus                                 output.o
IDMan_SCardTransmit                               output.o
IDMan_StAtoi                                      output.o
IDMan_StAtol                                      output.o
IDMan_StFree                                      output.o
IDMan_StMalloc                                    output.o
IDMan_StMemcmp                                    output.o
IDMan_StMemcpy                                    output.o
IDMan_StMemset                                    output.o
IDMan_StReadSetData                               output.o
IDMan_StStrcat                                    output.o
IDMan_StStrchr                                    output.o
IDMan_StStrcmp                                    output.o
IDMan_StStrcpy                                    output.o
IDMan_StStrlen                                    output.o
IDMan_generateSignature                           output.o
IDMan_generateSignatureByIndex                    output.o
IDMan_getCertificate                              output.o
IDMan_getCertificateByIndex                       output.o
IDMan_getMemoryFree                               output.o
IDMan_getStaticPassword                           output.o
IDMan_userAuthPKCS11                              output.o
IDMan_userAuthPKCS11ByIndex                       output.o
IDMan_verifySignature                             output.o
IDMan_verifySignatureByIndex                      output.o
IFDHCloseChannel                                  output.o
IFDHControl                                       output.o
IFDHCreateChannel                                 output.o
IFDHGetCapabilities                               output.o
IFDHICCPresence                                   output.o
IFDHPowerICC                                      output.o
IFDHSetProtocolParameters                         output.o
IFDHTransmitToICC                                 output.o
ISSUING_DIST_POINT_free                           output.o
ISSUING_DIST_POINT_it                             output.o
ISSUING_DIST_POINT_new                            output.o
InitCryptoLibrary                                 output.o
InitLeaderCardProtocol                            output.o
InternalAuth                                      output.o
LONG_it                                           output.o
MD4_Final                                         output.o
MD4_Init                                          output.o
MD4_Transform                                     output.o
MD4_Update                                        output.o
MD4_version                                       output.o
MD5                                               output.o
MD5_Final                                         output.o
MD5_Init                                          output.o
MD5_Transform                                     output.o
MD5_Update                                        output.o
MD5_version                                       output.o
NAME_CONSTRAINTS_check                            output.o
NAME_CONSTRAINTS_free                             output.o
NAME_CONSTRAINTS_it                               output.o
NAME_CONSTRAINTS_new                              output.o
NCONF_WIN32                                       output.o
NCONF_default                                     output.o
NCONF_dump_bio                                    output.o
NCONF_free                                        output.o
NCONF_free_data                                   output.o
NCONF_get_number_e                                output.o
NCONF_get_section                                 output.o
NCONF_get_string                                  output.o
NCONF_load                                        output.o
NCONF_load_bio                                    output.o
NCONF_new                                         output.o
NETSCAPE_CERT_SEQUENCE_free                       output.o
NETSCAPE_CERT_SEQUENCE_it                         output.o
NETSCAPE_CERT_SEQUENCE_new                        output.o
NETSCAPE_SPKAC_free                               output.o
NETSCAPE_SPKAC_it                                 output.o
NETSCAPE_SPKAC_new                                output.o
NETSCAPE_SPKI_free                                output.o
NETSCAPE_SPKI_it                                  output.o
NETSCAPE_SPKI_new                                 output.o
NETSCAPE_SPKI_sign                                output.o
NETSCAPE_SPKI_verify                              output.o
NOTICEREF_free                                    output.o
NOTICEREF_it                                      output.o
NOTICEREF_new                                     output.o
OBJ_NAME_add                                      output.o
OBJ_NAME_cleanup                                  output.o
OBJ_NAME_do_all                                   output.o
OBJ_NAME_do_all_sorted                            output.o
OBJ_NAME_get                                      output.o
OBJ_NAME_init                                     output.o
OBJ_NAME_new_index                                output.o
OBJ_NAME_remove                                   output.o
OBJ_add_object                                    output.o
OBJ_add_sigid                                     output.o
OBJ_bsearch_                                      output.o
OBJ_bsearch_ex_                                   output.o
OBJ_cleanup                                       output.o
OBJ_cmp                                           output.o
OBJ_create                                        output.o
OBJ_create_objects                                output.o
OBJ_dup                                           output.o
OBJ_find_sigid_algs                               output.o
OBJ_find_sigid_by_algs                            output.o
OBJ_ln2nid                                        output.o
OBJ_new_nid                                       output.o
OBJ_nid2ln                                        output.o
OBJ_nid2obj                                       output.o
OBJ_nid2sn                                        output.o
OBJ_obj2nid                                       output.o
OBJ_obj2txt                                       output.o
OBJ_sigid_free                                    output.o
OBJ_sn2nid                                        output.o
OBJ_txt2nid                                       output.o
OBJ_txt2obj                                       output.o
OCSP_BASICRESP_free                               output.o
OCSP_BASICRESP_it                                 output.o
OCSP_BASICRESP_new                                output.o
OCSP_CERTID_free                                  output.o
OCSP_CERTID_it                                    output.o
OCSP_CERTID_new                                   output.o
OCSP_CERTSTATUS_free                              output.o
OCSP_CERTSTATUS_it                                output.o
OCSP_CERTSTATUS_new                               output.o
OCSP_CRLID_free                                   output.o
OCSP_CRLID_it                                     output.o
OCSP_CRLID_new                                    output.o
OCSP_ONEREQ_free                                  output.o
OCSP_ONEREQ_it                                    output.o
OCSP_ONEREQ_new                                   output.o
OCSP_REQINFO_free                                 output.o
OCSP_REQINFO_it                                   output.o
OCSP_REQINFO_new                                  output.o
OCSP_REQUEST_free                                 output.o
OCSP_REQUEST_it                                   output.o
OCSP_REQUEST_new                                  output.o
OCSP_RESPBYTES_free                               output.o
OCSP_RESPBYTES_it                                 output.o
OCSP_RESPBYTES_new                                output.o
OCSP_RESPDATA_free                                output.o
OCSP_RESPDATA_it                                  output.o
OCSP_RESPDATA_new                                 output.o
OCSP_RESPID_free                                  output.o
OCSP_RESPID_it                                    output.o
OCSP_RESPID_new                                   output.o
OCSP_RESPONSE_free                                output.o
OCSP_RESPONSE_it                                  output.o
OCSP_RESPONSE_new                                 output.o
OCSP_REVOKEDINFO_free                             output.o
OCSP_REVOKEDINFO_it                               output.o
OCSP_REVOKEDINFO_new                              output.o
OCSP_SERVICELOC_free                              output.o
OCSP_SERVICELOC_it                                output.o
OCSP_SERVICELOC_new                               output.o
OCSP_SIGNATURE_free                               output.o
OCSP_SIGNATURE_it                                 output.o
OCSP_SIGNATURE_new                                output.o
OCSP_SINGLERESP_free                              output.o
OCSP_SINGLERESP_it                                output.o
OCSP_SINGLERESP_new                               output.o
OPENSSL_NONPIC_relocated                          output.o
OPENSSL_asc2uni                                   output.o
OPENSSL_cleanse                                   output.o
OPENSSL_cpuid_setup                               output.o
OPENSSL_gmtime                                    output.o
OPENSSL_gmtime_adj                                output.o
OPENSSL_ia32cap_P                                 output.o
OPENSSL_ia32cap_loc                               output.o
OPENSSL_isservice                                 output.o
OPENSSL_showfatal                                 output.o
OPENSSL_stderr                                    output.o
OPENSSL_uni2asc                                   output.o
OSSL_DES_version                                  output.o
OSSL_libdes_version                               output.o
OTHERNAME_cmp                                     output.o
OTHERNAME_free                                    output.o
OTHERNAME_it                                      output.o
OTHERNAME_new                                     output.o
OpenSSLDie                                        output.o
OpenSSL_add_all_ciphers                           output.o
OpenSSL_add_all_digests                           output.o
OpenUSB                                           output.o
PBE2PARAM_free                                    output.o
PBE2PARAM_it                                      output.o
PBE2PARAM_new                                     output.o
PBEPARAM_free                                     output.o
PBEPARAM_it                                       output.o
PBEPARAM_new                                      output.o
PBKDF2PARAM_free                                  output.o
PBKDF2PARAM_it                                    output.o
PBKDF2PARAM_new                                   output.o
PEM_ASN1_read_bio                                 output.o
PEM_ASN1_write_bio                                output.o
PEM_bytes_read_bio                                output.o
PEM_def_callback                                  output.o
PEM_dek_info                                      output.o
PEM_do_header                                     output.o
PEM_get_EVP_CIPHER_INFO                           output.o
PEM_proc_type                                     output.o
PEM_read_bio                                      output.o
PEM_read_bio_CMS                                  output.o
PEM_read_bio_DHparams                             output.o
PEM_read_bio_DSAPrivateKey                        output.o
PEM_read_bio_DSA_PUBKEY                           output.o
PEM_read_bio_DSAparams                            output.o
PEM_read_bio_ECPKParameters                       output.o
PEM_read_bio_ECPrivateKey                         output.o
PEM_read_bio_EC_PUBKEY                            output.o
PEM_read_bio_NETSCAPE_CERT_SEQUENCE               output.o
PEM_read_bio_PKCS7                                output.o
PEM_read_bio_PKCS8                                output.o
PEM_read_bio_PKCS8_PRIV_KEY_INFO                  output.o
PEM_read_bio_PUBKEY                               output.o
PEM_read_bio_Parameters                           output.o
PEM_read_bio_PrivateKey                           output.o
PEM_read_bio_RSAPrivateKey                        output.o
PEM_read_bio_RSAPublicKey                         output.o
PEM_read_bio_RSA_PUBKEY                           output.o
PEM_read_bio_X509                                 output.o
PEM_read_bio_X509_CRL                             output.o
PEM_read_bio_X509_REQ                             output.o
PEM_version                                       output.o
PEM_write_bio                                     output.o
PEM_write_bio_ASN1_stream                         output.o
PEM_write_bio_CMS                                 output.o
PEM_write_bio_CMS_stream                          output.o
PEM_write_bio_DHparams                            output.o
PEM_write_bio_DSAPrivateKey                       output.o
PEM_write_bio_DSA_PUBKEY                          output.o
PEM_write_bio_DSAparams                           output.o
PEM_write_bio_ECPKParameters                      output.o
PEM_write_bio_ECPrivateKey                        output.o
PEM_write_bio_EC_PUBKEY                           output.o
PEM_write_bio_NETSCAPE_CERT_SEQUENCE              output.o
PEM_write_bio_PKCS7                               output.o
PEM_write_bio_PKCS8                               output.o
PEM_write_bio_PKCS8PrivateKey                     output.o
PEM_write_bio_PKCS8PrivateKey_nid                 output.o
PEM_write_bio_PKCS8_PRIV_KEY_INFO                 output.o
PEM_write_bio_PUBKEY                              output.o
PEM_write_bio_Parameters                          output.o
PEM_write_bio_PrivateKey                          output.o
PEM_write_bio_RSAPrivateKey                       output.o
PEM_write_bio_RSAPublicKey                        output.o
PEM_write_bio_RSA_PUBKEY                          output.o
PEM_write_bio_X509                                output.o
PEM_write_bio_X509_CRL                            output.o
PEM_write_bio_X509_REQ                            output.o
PEM_write_bio_X509_REQ_NEW                        output.o
PHGetProtocol                                     output.o
PHSetProtocol                                     output.o
PKCS12_AUTHSAFES_it                               output.o
PKCS12_BAGS_free                                  output.o
PKCS12_BAGS_it                                    output.o
PKCS12_BAGS_new                                   output.o
PKCS12_MAC_DATA_free                              output.o
PKCS12_MAC_DATA_it                                output.o
PKCS12_MAC_DATA_new                               output.o
PKCS12_MAKE_KEYBAG                                output.o
PKCS12_MAKE_SHKEYBAG                              output.o
PKCS12_PBE_add                                    output.o
PKCS12_PBE_keyivgen                               output.o
PKCS12_SAFEBAGS_it                                output.o
PKCS12_SAFEBAG_free                               output.o
PKCS12_SAFEBAG_it                                 output.o
PKCS12_SAFEBAG_new                                output.o
PKCS12_certbag2x509                               output.o
PKCS12_certbag2x509crl                            output.o
PKCS12_decrypt_skey                               output.o
PKCS12_free                                       output.o
PKCS12_it                                         output.o
PKCS12_item_decrypt_d2i                           output.o
PKCS12_item_i2d_encrypt                           output.o
PKCS12_item_pack_safebag                          output.o
PKCS12_key_gen_asc                                output.o
PKCS12_key_gen_uni                                output.o
PKCS12_new                                        output.o
PKCS12_pack_authsafes                             output.o
PKCS12_pack_p7data                                output.o
PKCS12_pack_p7encdata                             output.o
PKCS12_pbe_crypt                                  output.o
PKCS12_unpack_authsafes                           output.o
PKCS12_unpack_p7data                              output.o
PKCS12_unpack_p7encdata                           output.o
PKCS12_x5092certbag                               output.o
PKCS12_x509crl2certbag                            output.o
PKCS1_MGF1                                        output.o
PKCS5_PBE_add                                     output.o
PKCS5_PBE_keyivgen                                output.o
PKCS5_PBKDF2_HMAC                                 output.o
PKCS5_PBKDF2_HMAC_SHA1                            output.o
PKCS5_pbe2_set                                    output.o
PKCS5_pbe2_set_iv                                 output.o
PKCS5_pbe_set                                     output.o
PKCS5_pbe_set0_algor                              output.o
PKCS5_v2_PBE_keyivgen                             output.o
PKCS7_ATTR_SIGN_it                                output.o
PKCS7_ATTR_VERIFY_it                              output.o
PKCS7_DIGEST_free                                 output.o
PKCS7_DIGEST_it                                   output.o
PKCS7_DIGEST_new                                  output.o
PKCS7_ENCRYPT_free                                output.o
PKCS7_ENCRYPT_it                                  output.o
PKCS7_ENCRYPT_new                                 output.o
PKCS7_ENC_CONTENT_free                            output.o
PKCS7_ENC_CONTENT_it                              output.o
PKCS7_ENC_CONTENT_new                             output.o
PKCS7_ENVELOPE_free                               output.o
PKCS7_ENVELOPE_it                                 output.o
PKCS7_ENVELOPE_new                                output.o
PKCS7_ISSUER_AND_SERIAL_digest                    output.o
PKCS7_ISSUER_AND_SERIAL_free                      output.o
PKCS7_ISSUER_AND_SERIAL_it                        output.o
PKCS7_ISSUER_AND_SERIAL_new                       output.o
PKCS7_RECIP_INFO_free                             output.o
PKCS7_RECIP_INFO_get0_alg                         output.o
PKCS7_RECIP_INFO_it                               output.o
PKCS7_RECIP_INFO_new                              output.o
PKCS7_RECIP_INFO_set                              output.o
PKCS7_SIGNED_free                                 output.o
PKCS7_SIGNED_it                                   output.o
PKCS7_SIGNED_new                                  output.o
PKCS7_SIGNER_INFO_free                            output.o
PKCS7_SIGNER_INFO_get0_algs                       output.o
PKCS7_SIGNER_INFO_it                              output.o
PKCS7_SIGNER_INFO_new                             output.o
PKCS7_SIGNER_INFO_set                             output.o
PKCS7_SIGNER_INFO_sign                            output.o
PKCS7_SIGN_ENVELOPE_free                          output.o
PKCS7_SIGN_ENVELOPE_it                            output.o
PKCS7_SIGN_ENVELOPE_new                           output.o
PKCS7_add0_attrib_signing_time                    output.o
PKCS7_add1_attrib_digest                          output.o
PKCS7_add_attrib_content_type                     output.o
PKCS7_add_attrib_smimecap                         output.o
PKCS7_add_attribute                               output.o
PKCS7_add_certificate                             output.o
PKCS7_add_crl                                     output.o
PKCS7_add_recipient                               output.o
PKCS7_add_recipient_info                          output.o
PKCS7_add_signature                               output.o
PKCS7_add_signed_attribute                        output.o
PKCS7_add_signer                                  output.o
PKCS7_cert_from_signer_info                       output.o
PKCS7_content_new                                 output.o
PKCS7_ctrl                                        output.o
PKCS7_dataDecode                                  output.o
PKCS7_dataFinal                                   output.o
PKCS7_dataInit                                    output.o
PKCS7_dataVerify                                  output.o
PKCS7_digest_from_attributes                      output.o
PKCS7_dup                                         output.o
PKCS7_free                                        output.o
PKCS7_get_attribute                               output.o
PKCS7_get_issuer_and_serial                       output.o
PKCS7_get_signed_attribute                        output.o
PKCS7_get_signer_info                             output.o
PKCS7_get_smimecap                                output.o
PKCS7_it                                          output.o
PKCS7_new                                         output.o
PKCS7_print_ctx                                   output.o
PKCS7_set0_type_other                             output.o
PKCS7_set_attributes                              output.o
PKCS7_set_cipher                                  output.o
PKCS7_set_content                                 output.o
PKCS7_set_digest                                  output.o
PKCS7_set_signed_attributes                       output.o
PKCS7_set_type                                    output.o
PKCS7_signatureVerify                             output.o
PKCS7_simple_smimecap                             output.o
PKCS7_stream                                      output.o
PKCS8_PRIV_KEY_INFO_free                          output.o
PKCS8_PRIV_KEY_INFO_it                            output.o
PKCS8_PRIV_KEY_INFO_new                           output.o
PKCS8_decrypt                                     output.o
PKCS8_encrypt                                     output.o
PKCS8_pkey_get0                                   output.o
PKCS8_pkey_set0                                   output.o
PKCS8_set_broken                                  output.o
PKEY_USAGE_PERIOD_free                            output.o
PKEY_USAGE_PERIOD_it                              output.o
PKEY_USAGE_PERIOD_new                             output.o
POLICYINFO_free                                   output.o
POLICYINFO_it                                     output.o
POLICYINFO_new                                    output.o
POLICYQUALINFO_free                               output.o
POLICYQUALINFO_it                                 output.o
POLICYQUALINFO_new                                output.o
POLICY_CONSTRAINTS_free                           output.o
POLICY_CONSTRAINTS_it                             output.o
POLICY_CONSTRAINTS_new                            output.o
POLICY_MAPPINGS_it                                output.o
POLICY_MAPPING_free                               output.o
POLICY_MAPPING_it                                 output.o
POLICY_MAPPING_new                                output.o
PROXY_CERT_INFO_EXTENSION_free                    output.o
PROXY_CERT_INFO_EXTENSION_it                      output.o
PROXY_CERT_INFO_EXTENSION_new                     output.o
PROXY_POLICY_free                                 output.o
PROXY_POLICY_it                                   output.o
PROXY_POLICY_new                                  output.o
PowerOff                                          output.o
PowerOn                                           output.o
RAND_SSLeay                                       output.o
RAND_add                                          output.o
RAND_bytes                                        output.o
RAND_cleanup                                      output.o
RAND_get_rand_method                              output.o
RAND_poll                                         output.o
RAND_pseudo_bytes                                 output.o
RAND_seed                                         output.o
RAND_set_rand_method                              output.o
RAND_status                                       output.o
RAND_version                                      output.o
RC2_cbc_encrypt                                   output.o
RC2_cfb64_encrypt                                 output.o
RC2_decrypt                                       output.o
RC2_ecb_encrypt                                   output.o
RC2_encrypt                                       output.o
RC2_ofb64_encrypt                                 output.o
RC2_set_key                                       output.o
RC2_version                                       output.o
RC4                                               output.o
RC4_options                                       output.o
RC4_set_key                                       output.o
RC4_version                                       output.o
RFAddReader                                       output.o
RFCheckReaderEventState                           output.o
RFReaderInfoById                                  output.o
RFRemoveReader                                    output.o
RIPEMD160_Final                                   output.o
RIPEMD160_Init                                    output.o
RIPEMD160_Transform                               output.o
RIPEMD160_Update                                  output.o
RMD160_version                                    output.o
RSAPrivateKey_dup                                 output.o
RSAPrivateKey_it                                  output.o
RSAPublicKey_dup                                  output.o
RSAPublicKey_it                                   output.o
RSA_PKCS1_SSLeay                                  output.o
RSA_X931_hash_id                                  output.o
RSA_blinding_off                                  output.o
RSA_blinding_on                                   output.o
RSA_flags                                         output.o
RSA_free                                          output.o
RSA_generate_key                                  output.o
RSA_generate_key_ex                               output.o
RSA_get_default_method                            output.o
RSA_get_ex_data                                   output.o
RSA_get_ex_new_index                              output.o
RSA_get_method                                    output.o
RSA_memory_lock                                   output.o
RSA_new                                           output.o
RSA_new_method                                    output.o
RSA_padding_add_PKCS1_OAEP                        output.o
RSA_padding_add_PKCS1_PSS                         output.o
RSA_padding_add_PKCS1_type_1                      output.o
RSA_padding_add_PKCS1_type_2                      output.o
RSA_padding_add_SSLv23                            output.o
RSA_padding_add_X931                              output.o
RSA_padding_add_none                              output.o
RSA_padding_check_PKCS1_OAEP                      output.o
RSA_padding_check_PKCS1_type_1                    output.o
RSA_padding_check_PKCS1_type_2                    output.o
RSA_padding_check_SSLv23                          output.o
RSA_padding_check_X931                            output.o
RSA_padding_check_none                            output.o
RSA_private_decrypt                               output.o
RSA_private_encrypt                               output.o
RSA_public_decrypt                                output.o
RSA_public_encrypt                                output.o
RSA_set_default_method                            output.o
RSA_set_ex_data                                   output.o
RSA_set_method                                    output.o
RSA_setup_blinding                                output.o
RSA_sign                                          output.o
RSA_size                                          output.o
RSA_up_ref                                        output.o
RSA_verify                                        output.o
RSA_verify_PKCS1_PSS                              output.o
RSA_version                                       output.o
ReadBinary                                        output.o
ReadDataT0                                        output.o
ReadUSB                                           output.o
ReceiveReply                                      output.o
SCardBeginTransaction                             output.o
SCardConnect                                      output.o
SCardDisconnect                                   output.o
SCardEndTransaction                               output.o
SCardEstablishContext                             output.o
SCardListReaders                                  output.o
SCardReleaseContext                               output.o
SCardStatus                                       output.o
SCardTransmit                                     output.o
SHA1                                              output.o
SHA1_Final                                        output.o
SHA1_Init                                         output.o
SHA1_Transform                                    output.o
SHA1_Update                                       output.o
SHA1_version                                      output.o
SHA224                                            output.o
SHA224_Final                                      output.o
SHA224_Init                                       output.o
SHA224_Update                                     output.o
SHA256                                            output.o
SHA256_Final                                      output.o
SHA256_Init                                       output.o
SHA256_Transform                                  output.o
SHA256_Update                                     output.o
SHA256_version                                    output.o
SHA384                                            output.o
SHA384_Final                                      output.o
SHA384_Init                                       output.o
SHA384_Update                                     output.o
SHA512                                            output.o
SHA512_Final                                      output.o
SHA512_Init                                       output.o
SHA512_Transform                                  output.o
SHA512_Update                                     output.o
SHA512_version                                    output.o
SHA_Final                                         output.o
SHA_Init                                          output.o
SHA_Transform                                     output.o
SHA_Update                                        output.o
SHA_version                                       output.o
SMIME_crlf_copy                                   output.o
SMIME_read_ASN1                                   output.o
SMIME_read_CMS                                    output.o
SMIME_text                                        output.o
SMIME_write_ASN1                                  output.o
SMIME_write_CMS                                   output.o
STACK_version                                     output.o
SXNETID_free                                      output.o
SXNETID_it                                        output.o
SXNETID_new                                       output.o
SXNET_add_id_INTEGER                              output.o
SXNET_add_id_asc                                  output.o
SXNET_add_id_ulong                                output.o
SXNET_free                                        output.o
SXNET_get_id_INTEGER                              output.o
SXNET_get_id_asc                                  output.o
SXNET_get_id_ulong                                output.o
SXNET_it                                          output.o
SXNET_new                                         output.o
Se4AddArpEntryList                                output.o
Se4AdjustTcpMss                                   output.o
Se4And                                            output.o
Se4BitToHex                                       output.o
Se4BroadcastMacAddress                            output.o
Se4BuildIcmpEchoPacket                            output.o
Se4CheckUnicastAddress                            output.o
Se4Cmp                                            output.o
Se4CmpArpEntry                                    output.o
Se4CmpArpWaitEntry                                output.o
Se4CmpIpCombineList                               output.o
Se4CombineIp                                      output.o
Se4FlushArpEntryList                              output.o
Se4FlushIpCombineList                             output.o
Se4FlushIpWaitList                                output.o
Se4Free                                           output.o
Se4FreeArpEntryList                               output.o
Se4FreeArpWaitList                                output.o
Se4FreeIpCombine                                  output.o
Se4FreeIpCombineList                              output.o
Se4FreeIpFragmentList                             output.o
Se4FreeIpHeaderInfo                               output.o
Se4FreeIpWait                                     output.o
Se4FreeIpWaitList                                 output.o
Se4GenerateSubnetMask                             output.o
Se4GenerateSubnetMask32                           output.o
Se4GetBroadcastAddress                            output.o
Se4GetHostAddress                                 output.o
Se4GetNetworkAddress                              output.o
Se4IPToStr                                        output.o
Se4IPToStr32                                      output.o
Se4IPToUINT                                       output.o
Se4Init                                           output.o
Se4InitArpEntryList                               output.o
Se4InitArpWaitList                                output.o
Se4InitIpCombineList                              output.o
Se4InitIpFragmentList                             output.o
Se4InitIpWaitList                                 output.o
Se4InsertIpCombine                                output.o
Se4InsertIpWait                                   output.o
Se4IpCheckChecksum                                output.o
Se4IpChecksum                                     output.o
Se4IsBroadcastAddress                             output.o
Se4IsInSameNetwork                                output.o
Se4IsSubnetMask                                   output.o
Se4IsZeroIP                                       output.o
Se4MacIpRelationKnown                             output.o
Se4MainProc                                       output.o
Se4Not                                            output.o
Se4Or                                             output.o
Se4ParseIpPacket                                  output.o
Se4ParseIpPacketICMPv4                            output.o
Se4ParseIpPacketUDPv4                             output.o
Se4ProcessArpWaitList                             output.o
Se4RecvArp                                        output.o
Se4RecvArpRequest                                 output.o
Se4RecvArpResponse                                output.o
Se4RecvEthPacket                                  output.o
Se4RecvIp                                         output.o
Se4RecvIpComplete                                 output.o
Se4SearchArpEntryList                             output.o
Se4SearchArpWaitList                              output.o
Se4SearchIpCombineList                            output.o
Se4SendArpDoProcess                               output.o
Se4SendArpRequest                                 output.o
Se4SendArpResponse                                output.o
Se4SendEthPacket                                  output.o
Se4SendIcmp                                       output.o
Se4SendIcmpEchoRequest                            output.o
Se4SendIcmpEchoResponse                           output.o
Se4SendIp                                         output.o
Se4SendIpFragment                                 output.o
Se4SendIpFragmentNow                              output.o
Se4SendRawIp                                      output.o
Se4SendUdp                                        output.o
Se4SendWaitingIpWait                              output.o
Se4StrToIP                                        output.o
Se4StrToIP32                                      output.o
Se4Tick                                           output.o
Se4UINTToIP                                       output.o
Se4ZeroIP                                         output.o
Se6AddGuestNode                                   output.o
Se6AddNeighborEntryList                           output.o
Se6And                                            output.o
Se6BroadcastMacAddress                            output.o
Se6BuildIcmpEchoPacket                            output.o
Se6CalcChecksum                                   output.o
Se6CheckIPItemStr                                 output.o
Se6CheckSubnetLength                              output.o
Se6CheckUnicastAddress                            output.o
Se6Cmp                                            output.o
Se6CmpIpCombineList                               output.o
Se6CmpNdpWaitEntry                                output.o
Se6CmpNeighborEntry                               output.o
Se6CombineIp                                      output.o
Se6FlushIpCombineList                             output.o
Se6FlushIpWaitList                                output.o
Se6FlushNeighborEntryList                         output.o
Se6Free                                           output.o
Se6FreeIpCombine                                  output.o
Se6FreeIpCombineList                              output.o
Se6FreeIpFragmentList                             output.o
Se6FreeIpHeaderInfo                               output.o
Se6FreeIpWait                                     output.o
Se6FreeIpWaitList                                 output.o
Se6FreeNdpWaitList                                output.o
Se6FreeNeighborEntryList                          output.o
Se6GenerateEui64Address                           output.o
Se6GenerateEui64GlobalAddress                     output.o
Se6GenerateEui64LocalAddress                      output.o
Se6GenerateMulticastMacAddress                    output.o
Se6GenerateSubnetMask                             output.o
Se6GetAllNodeMulticastAddr                        output.o
Se6GetAllRouterMulticastAddr                      output.o
Se6GetHostAddress                                 output.o
Se6GetIPAddrType                                  output.o
Se6GetPrefixAddress                               output.o
Se6GetSoliciationMulticastAddr                    output.o
Se6IPItemStrToChars                               output.o
Se6IPToStr                                        output.o
Se6Init                                           output.o
Se6InitIpCombineList                              output.o
Se6InitIpFragmentList                             output.o
Se6InitIpWaitList                                 output.o
Se6InitNdpWaitList                                output.o
Se6InitNeighborEntryList                          output.o
Se6InsertIpCombine                                output.o
Se6InsertIpWait                                   output.o
Se6IpChecksum                                     output.o
Se6IsGuestNode                                    output.o
Se6IsInSameNetwork                                output.o
Se6IsNetworkPrefixAddress                         output.o
Se6IsSubnetMask                                   output.o
Se6IsZeroIP                                       output.o
Se6LocalSubnet                                    output.o
Se6MacIpRelationKnown                             output.o
Se6MainProc                                       output.o
Se6Not                                            output.o
Se6Or                                             output.o
Se6ParseIpPacket                                  output.o
Se6ParseIpPacketICMPv6                            output.o
Se6ParseIpPacketUDPv6                             output.o
Se6ProcessNdpWaitList                             output.o
Se6RecvEthPacket                                  output.o
Se6RecvIp                                         output.o
Se6RecvIpComplete                                 output.o
Se6SearchIpCombineList                            output.o
Se6SearchNdpWaitList                              output.o
Se6SearchNeighborEntryList                        output.o
Se6SendEthPacket                                  output.o
Se6SendIcmp                                       output.o
Se6SendIcmpEchoRequest                            output.o
Se6SendIcmpEchoResponse                           output.o
Se6SendIcmpNeighborAdvertisement                  output.o
Se6SendIcmpNeighborSoliciation                    output.o
Se6SendIcmpRouterAdvertisement                    output.o
Se6SendIp                                         output.o
Se6SendIpFragment                                 output.o
Se6SendIpFragmentNow                              output.o
Se6SendNeighborSoliciation                        output.o
Se6SendNeighborSoliciationDoProcess               output.o
Se6SendRawIp                                      output.o
Se6SendUdp                                        output.o
Se6SendWaitingIpWait                              output.o
Se6StrToIP                                        output.o
Se6SubnetMaskToInt                                output.o
Se6Tick                                           output.o
Se6ZeroIP                                         output.o
SeAdd                                             output.o
SeAddBufStr                                       output.o
SeAdjustBufSize                                   output.o
SeB64CharToCode                                   output.o
SeB64CodeToChar                                   output.o
SeB64Decode                                       output.o
SeB64Encode                                       output.o
SeBSearch                                         output.o
SeBigNumToBuf                                     output.o
SeBigNumToStr                                     output.o
SeBinToBigNum                                     output.o
SeBinToStr                                        output.o
SeBinToStrEx                                      output.o
SeBioToBuf                                        output.o
SeBioToCert                                       output.o
SeBioToKey                                        output.o
SeBufToBigNum                                     output.o
SeBufToBio                                        output.o
SeBufToCert                                       output.o
SeBufToKey                                        output.o
SeBuildAndAddIPv6PacketOptionHeader               output.o
SeBuildICMPv6OptionValue                          output.o
SeBuildICMPv6Options                              output.o
SeBuildIPv6Packet                                 output.o
SeBuildIPv6PacketWithFragment                     output.o
SeCalcReplaceStrEx                                output.o
SeCertToBio                                       output.o
SeCertToBuf                                       output.o
SeCheckCert                                       output.o
SeCheckCertAndKey                                 output.o
SeCheckSignature                                  output.o
SeClearBuf                                        output.o
SeClearFifo                                       output.o
SeClone                                           output.o
SeCloneBuf                                        output.o
SeCloneCert                                       output.o
SeCloneKey                                        output.o
SeCloneList                                       output.o
SeCmp                                             output.o
SeCmpBuf                                          output.o
SeCmpEx                                           output.o
SeCompareCert                                     output.o
SeCompareStr                                      output.o
SeCopy                                            output.o
SeCopyStr                                         output.o
SeCopyToArray                                     output.o
SeDebug                                           output.o
SeDebugBin                                        output.o
SeDefaultTokenSplitChars                          output.o
SeDelete                                          output.o
SeDeleteAll                                       output.o
SeDeleteLock                                      output.o
SeDes3Decrypt                                     output.o
SeDes3Encrypt                                     output.o
SeDes3FreeKey                                     output.o
SeDes3NewKey                                      output.o
SeDes3RandKey                                     output.o
SeDesFreeKey                                      output.o
SeDesFreeKeyValue                                 output.o
SeDesNewKey                                       output.o
SeDesNewKeyValue                                  output.o
SeDesRandKey                                      output.o
SeDesRandKeyValue                                 output.o
SeDhCompute                                       output.o
SeDhFree                                          output.o
SeDhNew                                           output.o
SeDhNewGroup2                                     output.o
SeDumpBuf                                         output.o
SeEndWith                                         output.o
SeEndian16                                        output.o
SeEndian32                                        output.o
SeEndian64                                        output.o
SeError                                           output.o
SeEthAddSenderMacList                             output.o
SeEthDeleteOldSenderMacList                       output.o
SeEthFree                                         output.o
SeEthGenRandMacAddress                            output.o
SeEthGetInfo                                      output.o
SeEthGetNextRecvPacket                            output.o
SeEthIsSenderMacAddressExistsInList               output.o
SeEthNew                                          output.o
SeEthNicCallback                                  output.o
SeEthParseEthernetPacket                          output.o
SeEthSend                                         output.o
SeEthSendAdd                                      output.o
SeEthSendAll                                      output.o
SeFastSwap                                        output.o
SeFatal                                           output.o
SeFifoSize                                        output.o
SeFormat                                          output.o
SeFormatArgs                                      output.o
SeFormatEx                                        output.o
SeFree                                            output.o
SeFreeBio                                         output.o
SeFreeBuf                                         output.o
SeFreeBufWithoutBuffer                            output.o
SeFreeCert                                        output.o
SeFreeConfigEntryList                             output.o
SeFreeCrypto                                      output.o
SeFreeFifo                                        output.o
SeFreeKernel                                      output.o
SeFreeKey                                         output.o
SeFreeList                                        output.o
SeFreePKey                                        output.o
SeFreePacket                                      output.o
SeFreePacketList                                  output.o
SeFreePacketListWithoutBuffer                     output.o
SeFreeQueue                                       output.o
SeFreeStack                                       output.o
SeFreeToken                                       output.o
SeFreeX509                                        output.o
SeGetCertIssuerName                               output.o
SeGetCertMd5                                      output.o
SeGetCertSha1                                     output.o
SeGetCertSubjectName                              output.o
SeGetConfigBin                                    output.o
SeGetConfigBool                                   output.o
SeGetConfigEntry                                  output.o
SeGetConfigInt                                    output.o
SeGetConfigInt64                                  output.o
SeGetConfigStr                                    output.o
SeGetCurrentCpuId                                 output.o
SeGetKeyAndValue                                  output.o
SeGetKeyFromCert                                  output.o
SeGetNext                                         output.o
SeGetNextHeaderFromQueue                          output.o
SeGetNextInt                                      output.o
SeHashForSignBySHA1                               output.o
SeHexTo4Bit                                       output.o
SeHexToInt                                        output.o
SeHexToInt64                                      output.o
SeIkeBuild                                        output.o
SeIkeBuildCertPayload                             output.o
SeIkeBuildCertRequestPayload                      output.o
SeIkeBuildDataPayload                             output.o
SeIkeBuildDeletePayload                           output.o
SeIkeBuildIdPayload                               output.o
SeIkeBuildNoticePayload                           output.o
SeIkeBuildPayload                                 output.o
SeIkeBuildPayloadList                             output.o
SeIkeBuildProposalPayload                         output.o
SeIkeBuildSaPayload                               output.o
SeIkeBuildTransformPayload                        output.o
SeIkeBuildTransformValue                          output.o
SeIkeBuildTransformValueList                      output.o
SeIkeDecrypt                                      output.o
SeIkeEncrypt                                      output.o
SeIkeEncryptWithPadding                           output.o
SeIkeFree                                         output.o
SeIkeFreeCertPayload                              output.o
SeIkeFreeCertRequestPayload                       output.o
SeIkeFreeDataPayload                              output.o
SeIkeFreeDeletePayload                            output.o
SeIkeFreeIdPayload                                output.o
SeIkeFreeNoticePayload                            output.o
SeIkeFreePayload                                  output.o
SeIkeFreePayloadList                              output.o
SeIkeFreeProposalPayload                          output.o
SeIkeFreeSaPayload                                output.o
SeIkeFreeTransformPayload                         output.o
SeIkeFreeTransformValueList                       output.o
SeIkeGetFirstPayloadType                          output.o
SeIkeGetIPv4Address                               output.o
SeIkeGetIPv6Address                               output.o
SeIkeGetPayload                                   output.o
SeIkeGetPayloadNum                                output.o
SeIkeInitIPv4Address                              output.o
SeIkeInitIPv6Address                              output.o
SeIkeIpAddressToStr                               output.o
SeIkeIsZeroIP                                     output.o
SeIkeNew                                          output.o
SeIkeNewCertPayload                               output.o
SeIkeNewCertRequestPayload                        output.o
SeIkeNewDataPayload                               output.o
SeIkeNewDeletePayload                             output.o
SeIkeNewIdPayload                                 output.o
SeIkeNewNoticePayload                             output.o
SeIkeNewPayload                                   output.o
SeIkeNewProposalPayload                           output.o
SeIkeNewSaPayload                                 output.o
SeIkeNewTransformPayload                          output.o
SeIkeNewTransformValue                            output.o
SeIkeParse                                        output.o
SeIkeParseCertPayload                             output.o
SeIkeParseCertRequestPayload                      output.o
SeIkeParseDataPayload                             output.o
SeIkeParseDeletePayload                           output.o
SeIkeParseEx                                      output.o
SeIkeParseHeader                                  output.o
SeIkeParseIdPayload                               output.o
SeIkeParseNoticePayload                           output.o
SeIkeParsePayload                                 output.o
SeIkeParsePayloadList                             output.o
SeIkeParsePayloadListEx                           output.o
SeIkeParseProposalPayload                         output.o
SeIkeParseSaPayload                               output.o
SeIkeParseTransformPayload                        output.o
SeIkeParseTransformValueList                      output.o
SeIkePhase1CryptIdToKeySize                       output.o
SeIkePhase2CryptIdToKeySize                       output.o
SeIkeStrToPassword                                output.o
SeIkeStrToPhase1CryptId                           output.o
SeIkeStrToPhase1HashId                            output.o
SeIkeStrToPhase1Mode                              output.o
SeIkeStrToPhase2CryptId                           output.o
SeIkeStrToPhase2HashId                            output.o
SeInfo                                            output.o
SeInitCrypto                                      output.o
SeInitKernel                                      output.o
SeInsert                                          output.o
SeInsertQueue                                     output.o
SeInsertQueueInt                                  output.o
SeInsertStr                                       output.o
SeIntFree                                         output.o
SeIntInit                                         output.o
SeIsAllLowerStr                                   output.o
SeIsAllUpperStr                                   output.o
SeIsBase64                                        output.o
SeIsBigEndian                                     output.o
SeIsCertSignedByCert                              output.o
SeIsCharInStr                                     output.o
SeIsEmptyStr                                      output.o
SeIsInList                                        output.o
SeIsInListStr                                     output.o
SeIsLittleEndian                                  output.o
SeIsSplitChar                                     output.o
SeIsZero                                          output.o
SeKeyToBio                                        output.o
SeKeyToBuf                                        output.o
SeLoad                                            output.o
SeLoadCert                                        output.o
SeLoadConfigEntryList                             output.o
SeLoadConfigEntryListFromBuf                      output.o
SeLoadKey                                         output.o
SeLock                                            output.o
SeLog                                             output.o
SeLogArgs                                         output.o
SeMacSha1                                         output.o
SeMacSha196                                       output.o
SeMacToStr                                        output.o
SeMakeCharArray                                   output.o
SeMalloc                                          output.o
SeMd5                                             output.o
SeMemSize                                         output.o
SeMemToBuf                                        output.o
SeNewBio                                          output.o
SeNewBuf                                          output.o
SeNewFifo                                         output.o
SeNewList                                         output.o
SeNewLock                                         output.o
SeNewQueue                                        output.o
SeNewStack                                        output.o
SeNormalizeCrlf                                   output.o
SeNullTokenList                                   output.o
SePKeyPasswordCallbackFunction                    output.o
SeParseICMPv6Options                              output.o
SeParseIPv6ExtHeader                              output.o
SeParseIPv6Packet                                 output.o
SeParsePacket                                     output.o
SeParsePacketL2                                   output.o
SeParsePacketL3ARPv4                              output.o
SeParsePacketL3IPv4                               output.o
SeParsePacketL3IPv6                               output.o
SeParseToken                                      output.o
SeParseTokenWithNullStr                           output.o
SePeekFifo                                        output.o
SePeekNext                                        output.o
SePop                                             output.o
SePush                                            output.o
SeQSort                                           output.o
SeRand                                            output.o
SeRand1                                           output.o
SeRand16                                          output.o
SeRand32                                          output.o
SeRand64                                          output.o
SeRand8                                           output.o
SeRandBuf                                         output.o
SeReAlloc                                         output.o
SeReadBuf                                         output.o
SeReadBufFromBuf                                  output.o
SeReadBufInt                                      output.o
SeReadBufInt64                                    output.o
SeReadBufStr                                      output.o
SeReadDump                                        output.o
SeReadFifo                                        output.o
SeReadNextLine                                    output.o
SeReadRemainBuf                                   output.o
SeReplaceListPointer                              output.o
SeReplaceStr                                      output.o
SeReplaceStrEx                                    output.o
SeReplaceStri                                     output.o
SeRsaGen                                          output.o
SeRsaPrivateDecrypt                               output.o
SeRsaPrivateEncrypt                               output.o
SeRsaPublicDecrypt                                output.o
SeRsaPublicEncrypt                                output.o
SeRsaPublicSize                                   output.o
SeRsaPublicToBin                                  output.o
SeRsaPublicToBuf                                  output.o
SeRsaSign                                         output.o
SeRsaSignWithPadding                              output.o
SeRsaSignWithSha1                                 output.o
SeRsaVerifyWithPadding                            output.o
SeRsaVerifyWithSha1                               output.o
SeSave                                            output.o
SeSaveCert                                        output.o
SeSaveKey                                         output.o
SeSearch                                          output.o
SeSearchStr                                       output.o
SeSearchStrEx                                     output.o
SeSearchStri                                      output.o
SeSecAddTimer                                     output.o
SeSecCalcKEYMAT                                   output.o
SeSecCalcKEYMATFull                               output.o
SeSecCalcKa                                       output.o
SeSecCalcP1Iv                                     output.o
SeSecCalcP1KeySet                                 output.o
SeSecCalcP2Iv                                     output.o
SeSecCheckIPsecSaExpires                          output.o
SeSecCheckIkeSaExpires                            output.o
SeSecCmpIkeSa                                     output.o
SeSecDeleteExpiredIPsecSa                         output.o
SeSecDeleteExpiredIkeSa                           output.o
SeSecDoInterval                                   output.o
SeSecEspRecvCallback                              output.o
SeSecForceReconnect                               output.o
SeSecFree                                         output.o
SeSecFreeIPsecSa                                  output.o
SeSecFreeIkeSa                                    output.o
SeSecFreeMain                                     output.o
SeSecFreeP1KeySet                                 output.o
SeSecFreeSaList                                   output.o
SeSecGenIPsecSASpi                                output.o
SeSecGenIkeSaInitCookie                           output.o
SeSecGenIkeSaMessageId                            output.o
SeSecGetIPsecSa                                   output.o
SeSecInit                                         output.o
SeSecInitMain                                     output.o
SeSecInitSaList                                   output.o
SeSecLifeSeconds64bit                             output.o
SeSecNewIPsecSa                                   output.o
SeSecNewIkeSa                                     output.o
SeSecNewSpi                                       output.o
SeSecProcessIkeSaMsg                              output.o
SeSecProcessIkeSaMsgInfo                          output.o
SeSecProcessIkeSaMsgPhase1                        output.o
SeSecProcessIkeSaMsgPhase2                        output.o
SeSecProcessMain                                  output.o
SeSecRecvAggr                                     output.o
SeSecRecvMain2                                    output.o
SeSecRecvMain4                                    output.o
SeSecRecvMain6                                    output.o
SeSecSearchIPsecSaBySpi                           output.o
SeSecSearchIkeSa                                  output.o
SeSecSearchIkeSaBySpi                             output.o
SeSecSendAggr                                     output.o
SeSecSendEsp                                      output.o
SeSecSendIPsecSaDeleteMsg                         output.o
SeSecSendIkeSaDeleteMsg                           output.o
SeSecSendIkeSaMsgInfo                             output.o
SeSecSendIkeSaMsgInfoSimple                       output.o
SeSecSendIkeSaMsgPhase2                           output.o
SeSecSendIkeSaMsgPhase2FinalHash                  output.o
SeSecSendMain1                                    output.o
SeSecSendMain3                                    output.o
SeSecSendMain5                                    output.o
SeSecSendUdp                                      output.o
SeSecSendVirtualIp                                output.o
SeSecSetRecvEspCallback                           output.o
SeSecSetRecvUdpCallback                           output.o
SeSecSetRecvVirtualIpCallback                     output.o
SeSecSetTimerCallback                             output.o
SeSecStartVpnConnect                              output.o
SeSecStrToAuthMethod                              output.o
SeSecTick                                         output.o
SeSecTimerCallback                                output.o
SeSecUdpRecvCallback                              output.o
SeSecVirtualIpRecvCallback                        output.o
SeSeekBuf                                         output.o
SeSetCmp                                          output.o
SeSetSortFlag                                     output.o
SeSha1                                            output.o
SeSort                                            output.o
SeStartWith                                       output.o
SeStrCat                                          output.o
SeStrCheckLen                                     output.o
SeStrCheckSize                                    output.o
SeStrCmp                                          output.o
SeStrCmpi                                         output.o
SeStrCpy                                          output.o
SeStrLen                                          output.o
SeStrLower                                        output.o
SeStrSize                                         output.o
SeStrToBin                                        output.o
SeStrToBinEx                                      output.o
SeStrToMac                                        output.o
SeStrUpper                                        output.o
SeStrnCmp                                         output.o
SeStrnCmpi                                        output.o
SeSwap                                            output.o
SeSwap16                                          output.o
SeSwap32                                          output.o
SeSwap64                                          output.o
SeSysFreeData                                     output.o
SeSysFreeLock                                     output.o
SeSysFreeTimer                                    output.o
SeSysGetCurrentCpuId                              output.o
SeSysGetPhysicalNicInfo                           output.o
SeSysGetTickCount                                 output.o
SeSysGetVirtualNicInfo                            output.o
SeSysLoadData                                     output.o
SeSysLock                                         output.o
SeSysLog                                          output.o
SeSysMemoryAlloc                                  output.o
SeSysMemoryFree                                   output.o
SeSysMemoryReAlloc                                output.o
SeSysNewLock                                      output.o
SeSysNewTimer                                     output.o
SeSysRsaSign                                      output.o
SeSysSaveData                                     output.o
SeSysSendPhysicalNic                              output.o
SeSysSendVirtualNic                               output.o
SeSysSetPhysicalNicRecvCallback                   output.o
SeSysSetTimer                                     output.o
SeSysSetVirtualNicRecvCallback                    output.o
SeSysUnlock                                       output.o
SeTick                                            output.o
SeTick64                                          output.o
SeTick64Internal                                  output.o
SeTimerAdjust                                     output.o
SeTimerCallback                                   output.o
SeTimerEntryCompare                               output.o
SeTimerFree                                       output.o
SeTimerNew                                        output.o
SeTimerSet                                        output.o
SeToArray                                         output.o
SeToHex                                           output.o
SeToHex64                                         output.o
SeToInt                                           output.o
SeToInt64                                         output.o
SeToLower                                         output.o
SeToStr                                           output.o
SeToStr3                                          output.o
SeToStr64                                         output.o
SeToUpper                                         output.o
SeTrim                                            output.o
SeTrimCopy                                        output.o
SeTrimCrlf                                        output.o
SeTrimLeft                                        output.o
SeTrimRight                                       output.o
SeUniqueToken                                     output.o
SeUnlock                                          output.o
SeVpn4ClientAddTimer                              output.o
SeVpn4ClientGetTick                               output.o
SeVpn4ClientSendEsp                               output.o
SeVpn4ClientSendUdp                               output.o
SeVpn4ClientSendVirtualIp                         output.o
SeVpn4ClientSetRecvEspCallback                    output.o
SeVpn4ClientSetRecvUdpCallback                    output.o
SeVpn4ClientSetRecvVirtualIpCallback              output.o
SeVpn4ClientSetTimerCallback                      output.o
SeVpn4DhcpBuildDhcpOptionList                     output.o
SeVpn4DhcpFreeOptionList                          output.o
SeVpn4DhcpOptionsToBuf                            output.o
SeVpn4DhcpParseOptionList                         output.o
SeVpn4DhcpParseOptionListMain                     output.o
SeVpn4DhcpSearchOption                            output.o
SeVpn4DhcpSendResponse                            output.o
SeVpn4DhcpServer                                  output.o
SeVpn4DoInterval                                  output.o
SeVpn4Free                                        output.o
SeVpn4FreeIPsec                                   output.o
SeVpn4IPsecInputFromPhysical                      output.o
SeVpn4IPsecInputFromVirtual                       output.o
SeVpn4IPsecMainProc                               output.o
SeVpn4IPsecSendPing                               output.o
SeVpn4Init                                        output.o
SeVpn4InitIPsec                                   output.o
SeVpn4InitSecConfig                               output.o
SeVpn4MainProc                                    output.o
SeVpn4NewDhcpOption                               output.o
SeVpn4RecvPacketPhysical                          output.o
SeVpn4RecvPacketVirtual                           output.o
SeVpn4SetTimer                                    output.o
SeVpn4Tick                                        output.o
SeVpn6ClientAddTimer                              output.o
SeVpn6ClientGetTick                               output.o
SeVpn6ClientSendEsp                               output.o
SeVpn6ClientSendUdp                               output.o
SeVpn6ClientSendVirtualIp                         output.o
SeVpn6ClientSetRecvEspCallback                    output.o
SeVpn6ClientSetRecvUdpCallback                    output.o
SeVpn6ClientSetRecvVirtualIpCallback              output.o
SeVpn6ClientSetTimerCallback                      output.o
SeVpn6DoInterval                                  output.o
SeVpn6Free                                        output.o
SeVpn6FreeIPsec                                   output.o
SeVpn6IPsecInputFromPhysical                      output.o
SeVpn6IPsecInputFromVirtual                       output.o
SeVpn6IPsecMainProc                               output.o
SeVpn6IPsecSendPing                               output.o
SeVpn6Init                                        output.o
SeVpn6InitIPsec                                   output.o
SeVpn6InitSecConfig                               output.o
SeVpn6MainProc                                    output.o
SeVpn6RecvPacketPhysical                          output.o
SeVpn6RecvPacketVirtual                           output.o
SeVpn6SetTimer                                    output.o
SeVpn6Tick                                        output.o
SeVpn6UpdateGuestOsIpAddress                      output.o
SeVpnAddTimer                                     output.o
SeVpnDoInterval                                   output.o
SeVpnEthRecvCallback                              output.o
SeVpnFree                                         output.o
SeVpnFreeConfig                                   output.o
SeVpnFreeIpStack                                  output.o
SeVpnInit                                         output.o
SeVpnInitIpStack                                  output.o
SeVpnLoadConfig                                   output.o
SeVpnMainFree                                     output.o
SeVpnMainHandler                                  output.o
SeVpnMainInit                                     output.o
SeVpnMainProcRecvEtherPacket                      output.o
SeVpnMainProcess                                  output.o
SeVpnRecvEtherPacket                              output.o
SeVpnRecvIpV4PacketCallback                       output.o
SeVpnRecvIpV6PacketCallback                       output.o
SeVpnSendEtherPacket                              output.o
SeVpnStatusChanged                                output.o
SeVpnTick                                         output.o
SeVpnTimerCallback                                output.o
SeWarning                                         output.o
SeWriteBuf                                        output.o
SeWriteBufBuf                                     output.o
SeWriteBufInt                                     output.o
SeWriteBufInt64                                   output.o
SeWriteBufLine                                    output.o
SeWriteBufStr                                     output.o
SeWriteFifo                                       output.o
SeX509ToCert                                      output.o
SeZero                                            output.o
SeZeroMalloc                                      output.o
SelectFileDF                                      output.o
SelectFileEF                                      output.o
SetATR                                            output.o
SetElem                                           output.o
SetLength                                         output.o
StIsdigit                                         output.o
StIsspace                                         output.o
T0XfrBlockCHAR                                    output.o
T0XfrBlockTPDU                                    output.o
T1NegociateIFSD                                   output.o
T1XfrBlockExtendedAPDU                            output.o
T1XfrBlockTPDU                                    output.o
TransHex2Tex                                      output.o
TransTex2Hex                                      output.o
TransmitCommand                                   output.o
TransmitPPS                                       output.o
UI_OpenSSL                                        output.o
UI_add_error_string                               output.o
UI_add_info_string                                output.o
UI_add_input_boolean                              output.o
UI_add_input_string                               output.o
UI_add_user_data                                  output.o
UI_add_verify_string                              output.o
UI_construct_prompt                               output.o
UI_create_method                                  output.o
UI_ctrl                                           output.o
UI_destroy_method                                 output.o
UI_dup_error_string                               output.o
UI_dup_info_string                                output.o
UI_dup_input_boolean                              output.o
UI_dup_input_string                               output.o
UI_dup_verify_string                              output.o
UI_free                                           output.o
UI_get0_action_string                             output.o
UI_get0_output_string                             output.o
UI_get0_result                                    output.o
UI_get0_result_string                             output.o
UI_get0_test_string                               output.o
UI_get0_user_data                                 output.o
UI_get_default_method                             output.o
UI_get_ex_data                                    output.o
UI_get_ex_new_index                               output.o
UI_get_input_flags                                output.o
UI_get_method                                     output.o
UI_get_result_maxsize                             output.o
UI_get_result_minsize                             output.o
UI_get_string_type                                output.o
UI_method_get_closer                              output.o
UI_method_get_flusher                             output.o
UI_method_get_opener                              output.o
UI_method_get_prompt_constructor                  output.o
UI_method_get_reader                              output.o
UI_method_get_writer                              output.o
UI_method_set_closer                              output.o
UI_method_set_flusher                             output.o
UI_method_set_opener                              output.o
UI_method_set_prompt_constructor                  output.o
UI_method_set_reader                              output.o
UI_method_set_writer                              output.o
UI_new                                            output.o
UI_new_method                                     output.o
UI_process                                        output.o
UI_set_default_method                             output.o
UI_set_ex_data                                    output.o
UI_set_method                                     output.o
UI_set_result                                     output.o
USERNOTICE_free                                   output.o
USERNOTICE_it                                     output.o
USERNOTICE_new                                    output.o
UTF8_getc                                         output.o
UTF8_putc                                         output.o
UpdateBinary                                      output.o
VPN_IPsec_Client_Start                            output.o
VPN_IPsec_Client_Stop                             output.o
VPN_IPsec_Free                                    output.o
VPN_IPsec_Init                                    output.o
Verify                                            output.o
WHIRLPOOL                                         output.o
WHIRLPOOL_BitUpdate                               output.o
WHIRLPOOL_Final                                   output.o
WHIRLPOOL_Init                                    output.o
WHIRLPOOL_Update                                  output.o
WriteUSB                                          output.o
X509V3_EXT_CRL_add_conf                           output.o
X509V3_EXT_CRL_add_nconf                          output.o
X509V3_EXT_REQ_add_conf                           output.o
X509V3_EXT_REQ_add_nconf                          output.o
X509V3_EXT_add                                    output.o
X509V3_EXT_add_alias                              output.o
X509V3_EXT_add_conf                               output.o
X509V3_EXT_add_list                               output.o
X509V3_EXT_add_nconf                              output.o
X509V3_EXT_add_nconf_sk                           output.o
X509V3_EXT_cleanup                                output.o
X509V3_EXT_conf                                   output.o
X509V3_EXT_conf_nid                               output.o
X509V3_EXT_d2i                                    output.o
X509V3_EXT_get                                    output.o
X509V3_EXT_get_nid                                output.o
X509V3_EXT_i2d                                    output.o
X509V3_EXT_nconf                                  output.o
X509V3_EXT_nconf_nid                              output.o
X509V3_EXT_print                                  output.o
X509V3_EXT_val_prn                                output.o
X509V3_NAME_from_section                          output.o
X509V3_add1_i2d                                   output.o
X509V3_add_standard_extensions                    output.o
X509V3_add_value                                  output.o
X509V3_add_value_bool                             output.o
X509V3_add_value_bool_nf                          output.o
X509V3_add_value_int                              output.o
X509V3_add_value_uchar                            output.o
X509V3_conf_free                                  output.o
X509V3_extensions_print                           output.o
X509V3_get_d2i                                    output.o
X509V3_get_section                                output.o
X509V3_get_string                                 output.o
X509V3_get_value_bool                             output.o
X509V3_get_value_int                              output.o
X509V3_parse_list                                 output.o
X509V3_section_free                               output.o
X509V3_set_conf_lhash                             output.o
X509V3_set_ctx                                    output.o
X509V3_set_nconf                                  output.o
X509V3_string_free                                output.o
X509_ALGORS_it                                    output.o
X509_ALGOR_dup                                    output.o
X509_ALGOR_free                                   output.o
X509_ALGOR_get0                                   output.o
X509_ALGOR_it                                     output.o
X509_ALGOR_new                                    output.o
X509_ALGOR_set0                                   output.o
X509_ATTRIBUTE_SET_it                             output.o
X509_ATTRIBUTE_count                              output.o
X509_ATTRIBUTE_create                             output.o
X509_ATTRIBUTE_create_by_NID                      output.o
X509_ATTRIBUTE_create_by_OBJ                      output.o
X509_ATTRIBUTE_create_by_txt                      output.o
X509_ATTRIBUTE_dup                                output.o
X509_ATTRIBUTE_free                               output.o
X509_ATTRIBUTE_get0_data                          output.o
X509_ATTRIBUTE_get0_object                        output.o
X509_ATTRIBUTE_get0_type                          output.o
X509_ATTRIBUTE_it                                 output.o
X509_ATTRIBUTE_new                                output.o
X509_ATTRIBUTE_set1_data                          output.o
X509_ATTRIBUTE_set1_object                        output.o
X509_CERT_AUX_free                                output.o
X509_CERT_AUX_it                                  output.o
X509_CERT_AUX_new                                 output.o
X509_CERT_AUX_print                               output.o
X509_CERT_PAIR_free                               output.o
X509_CERT_PAIR_it                                 output.o
X509_CERT_PAIR_new                                output.o
X509_CINF_free                                    output.o
X509_CINF_it                                      output.o
X509_CINF_new                                     output.o
X509_CRL_INFO_free                                output.o
X509_CRL_INFO_it                                  output.o
X509_CRL_INFO_new                                 output.o
X509_CRL_METHOD_free                              output.o
X509_CRL_METHOD_new                               output.o
X509_CRL_add0_revoked                             output.o
X509_CRL_add1_ext_i2d                             output.o
X509_CRL_add_ext                                  output.o
X509_CRL_cmp                                      output.o
X509_CRL_delete_ext                               output.o
X509_CRL_digest                                   output.o
X509_CRL_dup                                      output.o
X509_CRL_free                                     output.o
X509_CRL_get0_by_cert                             output.o
X509_CRL_get0_by_serial                           output.o
X509_CRL_get_ext                                  output.o
X509_CRL_get_ext_by_NID                           output.o
X509_CRL_get_ext_by_OBJ                           output.o
X509_CRL_get_ext_by_critical                      output.o
X509_CRL_get_ext_count                            output.o
X509_CRL_get_ext_d2i                              output.o
X509_CRL_get_meth_data                            output.o
X509_CRL_it                                       output.o
X509_CRL_match                                    output.o
X509_CRL_new                                      output.o
X509_CRL_set_default_method                       output.o
X509_CRL_set_meth_data                            output.o
X509_CRL_sign                                     output.o
X509_CRL_verify                                   output.o
X509_EXTENSIONS_it                                output.o
X509_EXTENSION_create_by_NID                      output.o
X509_EXTENSION_create_by_OBJ                      output.o
X509_EXTENSION_dup                                output.o
X509_EXTENSION_free                               output.o
X509_EXTENSION_get_critical                       output.o
X509_EXTENSION_get_data                           output.o
X509_EXTENSION_get_object                         output.o
X509_EXTENSION_it                                 output.o
X509_EXTENSION_new                                output.o
X509_EXTENSION_set_critical                       output.o
X509_EXTENSION_set_data                           output.o
X509_EXTENSION_set_object                         output.o
X509_LOOKUP_by_alias                              output.o
X509_LOOKUP_by_fingerprint                        output.o
X509_LOOKUP_by_issuer_serial                      output.o
X509_LOOKUP_by_subject                            output.o
X509_LOOKUP_ctrl                                  output.o
X509_LOOKUP_free                                  output.o
X509_LOOKUP_init                                  output.o
X509_LOOKUP_new                                   output.o
X509_LOOKUP_shutdown                              output.o
X509_NAME_ENTRIES_it                              output.o
X509_NAME_ENTRY_create_by_NID                     output.o
X509_NAME_ENTRY_create_by_OBJ                     output.o
X509_NAME_ENTRY_create_by_txt                     output.o
X509_NAME_ENTRY_dup                               output.o
X509_NAME_ENTRY_free                              output.o
X509_NAME_ENTRY_get_data                          output.o
X509_NAME_ENTRY_get_object                        output.o
X509_NAME_ENTRY_it                                output.o
X509_NAME_ENTRY_new                               output.o
X509_NAME_ENTRY_set_data                          output.o
X509_NAME_ENTRY_set_object                        output.o
X509_NAME_INTERNAL_it                             output.o
X509_NAME_add_entry                               output.o
X509_NAME_add_entry_by_NID                        output.o
X509_NAME_add_entry_by_OBJ                        output.o
X509_NAME_add_entry_by_txt                        output.o
X509_NAME_cmp                                     output.o
X509_NAME_delete_entry                            output.o
X509_NAME_digest                                  output.o
X509_NAME_dup                                     output.o
X509_NAME_entry_count                             output.o
X509_NAME_free                                    output.o
X509_NAME_get_entry                               output.o
X509_NAME_get_index_by_NID                        output.o
X509_NAME_get_index_by_OBJ                        output.o
X509_NAME_get_text_by_NID                         output.o
X509_NAME_get_text_by_OBJ                         output.o
X509_NAME_hash                                    output.o
X509_NAME_hash_old                                output.o
X509_NAME_it                                      output.o
X509_NAME_new                                     output.o
X509_NAME_oneline                                 output.o
X509_NAME_print                                   output.o
X509_NAME_print_ex                                output.o
X509_NAME_set                                     output.o
X509_OBJECT_free_contents                         output.o
X509_OBJECT_idx_by_subject                        output.o
X509_OBJECT_retrieve_by_subject                   output.o
X509_OBJECT_retrieve_match                        output.o
X509_OBJECT_up_ref_count                          output.o
X509_POLICY_NODE_print                            output.o
X509_PUBKEY_free                                  output.o
X509_PUBKEY_get                                   output.o
X509_PUBKEY_get0_param                            output.o
X509_PUBKEY_it                                    output.o
X509_PUBKEY_new                                   output.o
X509_PUBKEY_set                                   output.o
X509_PUBKEY_set0_param                            output.o
X509_PURPOSE_add                                  output.o
X509_PURPOSE_cleanup                              output.o
X509_PURPOSE_get0                                 output.o
X509_PURPOSE_get0_name                            output.o
X509_PURPOSE_get0_sname                           output.o
X509_PURPOSE_get_by_id                            output.o
X509_PURPOSE_get_by_sname                         output.o
X509_PURPOSE_get_count                            output.o
X509_PURPOSE_get_id                               output.o
X509_PURPOSE_get_trust                            output.o
X509_PURPOSE_set                                  output.o
X509_REQ_INFO_free                                output.o
X509_REQ_INFO_it                                  output.o
X509_REQ_INFO_new                                 output.o
X509_REQ_add1_attr                                output.o
X509_REQ_add1_attr_by_NID                         output.o
X509_REQ_add1_attr_by_OBJ                         output.o
X509_REQ_add1_attr_by_txt                         output.o
X509_REQ_add_extensions                           output.o
X509_REQ_add_extensions_nid                       output.o
X509_REQ_check_private_key                        output.o
X509_REQ_delete_attr                              output.o
X509_REQ_digest                                   output.o
X509_REQ_dup                                      output.o
X509_REQ_extension_nid                            output.o
X509_REQ_free                                     output.o
X509_REQ_get1_email                               output.o
X509_REQ_get_attr                                 output.o
X509_REQ_get_attr_by_NID                          output.o
X509_REQ_get_attr_by_OBJ                          output.o
X509_REQ_get_attr_count                           output.o
X509_REQ_get_extension_nids                       output.o
X509_REQ_get_extensions                           output.o
X509_REQ_get_pubkey                               output.o
X509_REQ_it                                       output.o
X509_REQ_new                                      output.o
X509_REQ_set_extension_nids                       output.o
X509_REQ_set_pubkey                               output.o
X509_REQ_set_subject_name                         output.o
X509_REQ_set_version                              output.o
X509_REQ_sign                                     output.o
X509_REQ_verify                                   output.o
X509_REVOKED_add1_ext_i2d                         output.o
X509_REVOKED_add_ext                              output.o
X509_REVOKED_delete_ext                           output.o
X509_REVOKED_free                                 output.o
X509_REVOKED_get_ext                              output.o
X509_REVOKED_get_ext_by_NID                       output.o
X509_REVOKED_get_ext_by_OBJ                       output.o
X509_REVOKED_get_ext_by_critical                  output.o
X509_REVOKED_get_ext_count                        output.o
X509_REVOKED_get_ext_d2i                          output.o
X509_REVOKED_it                                   output.o
X509_REVOKED_new                                  output.o
X509_SIG_free                                     output.o
X509_SIG_it                                       output.o
X509_SIG_new                                      output.o
X509_STORE_CTX_cleanup                            output.o
X509_STORE_CTX_free                               output.o
X509_STORE_CTX_get0_current_crl                   output.o
X509_STORE_CTX_get0_current_issuer                output.o
X509_STORE_CTX_get0_param                         output.o
X509_STORE_CTX_get0_parent_ctx                    output.o
X509_STORE_CTX_get0_policy_tree                   output.o
X509_STORE_CTX_get1_chain                         output.o
X509_STORE_CTX_get1_issuer                        output.o
X509_STORE_CTX_get_chain                          output.o
X509_STORE_CTX_get_current_cert                   output.o
X509_STORE_CTX_get_error                          output.o
X509_STORE_CTX_get_error_depth                    output.o
X509_STORE_CTX_get_ex_data                        output.o
X509_STORE_CTX_get_ex_new_index                   output.o
X509_STORE_CTX_get_explicit_policy                output.o
X509_STORE_CTX_init                               output.o
X509_STORE_CTX_new                                output.o
X509_STORE_CTX_purpose_inherit                    output.o
X509_STORE_CTX_set0_crls                          output.o
X509_STORE_CTX_set0_param                         output.o
X509_STORE_CTX_set_cert                           output.o
X509_STORE_CTX_set_chain                          output.o
X509_STORE_CTX_set_default                        output.o
X509_STORE_CTX_set_depth                          output.o
X509_STORE_CTX_set_error                          output.o
X509_STORE_CTX_set_ex_data                        output.o
X509_STORE_CTX_set_flags                          output.o
X509_STORE_CTX_set_purpose                        output.o
X509_STORE_CTX_set_time                           output.o
X509_STORE_CTX_set_trust                          output.o
X509_STORE_CTX_set_verify_cb                      output.o
X509_STORE_CTX_trusted_stack                      output.o
X509_STORE_add_cert                               output.o
X509_STORE_add_crl                                output.o
X509_STORE_add_lookup                             output.o
X509_STORE_free                                   output.o
X509_STORE_get1_certs                             output.o
X509_STORE_get1_crls                              output.o
X509_STORE_get_by_subject                         output.o
X509_STORE_new                                    output.o
X509_STORE_set1_param                             output.o
X509_STORE_set_depth                              output.o
X509_STORE_set_flags                              output.o
X509_STORE_set_purpose                            output.o
X509_STORE_set_trust                              output.o
X509_STORE_set_verify_cb                          output.o
X509_TRUST_add                                    output.o
X509_TRUST_cleanup                                output.o
X509_TRUST_get0                                   output.o
X509_TRUST_get0_name                              output.o
X509_TRUST_get_by_id                              output.o
X509_TRUST_get_count                              output.o
X509_TRUST_get_flags                              output.o
X509_TRUST_get_trust                              output.o
X509_TRUST_set                                    output.o
X509_TRUST_set_default                            output.o
X509_VAL_free                                     output.o
X509_VAL_it                                       output.o
X509_VAL_new                                      output.o
X509_VERIFY_PARAM_add0_policy                     output.o
X509_VERIFY_PARAM_add0_table                      output.o
X509_VERIFY_PARAM_clear_flags                     output.o
X509_VERIFY_PARAM_free                            output.o
X509_VERIFY_PARAM_get_depth                       output.o
X509_VERIFY_PARAM_get_flags                       output.o
X509_VERIFY_PARAM_inherit                         output.o
X509_VERIFY_PARAM_lookup                          output.o
X509_VERIFY_PARAM_new                             output.o
X509_VERIFY_PARAM_set1                            output.o
X509_VERIFY_PARAM_set1_name                       output.o
X509_VERIFY_PARAM_set1_policies                   output.o
X509_VERIFY_PARAM_set_depth                       output.o
X509_VERIFY_PARAM_set_flags                       output.o
X509_VERIFY_PARAM_set_purpose                     output.o
X509_VERIFY_PARAM_set_time                        output.o
X509_VERIFY_PARAM_set_trust                       output.o
X509_VERIFY_PARAM_table_cleanup                   output.o
X509_add1_ext_i2d                                 output.o
X509_add1_reject_object                           output.o
X509_add1_trust_object                            output.o
X509_add_ext                                      output.o
X509_alias_get0                                   output.o
X509_alias_set1                                   output.o
X509_check_akid                                   output.o
X509_check_ca                                     output.o
X509_check_issued                                 output.o
X509_check_private_key                            output.o
X509_check_purpose                                output.o
X509_check_trust                                  output.o
X509_cmp                                          output.o
X509_cmp_current_time                             output.o
X509_cmp_time                                     output.o
X509_delete_ext                                   output.o
X509_digest                                       output.o
X509_dup                                          output.o
X509_email_free                                   output.o
X509_find_by_issuer_and_serial                    output.o
X509_find_by_subject                              output.o
X509_free                                         output.o
X509_get0_pubkey_bitstr                           output.o
X509_get1_email                                   output.o
X509_get1_ocsp                                    output.o
X509_get_default_cert_area                        output.o
X509_get_default_cert_dir                         output.o
X509_get_default_cert_dir_env                     output.o
X509_get_default_cert_file                        output.o
X509_get_default_cert_file_env                    output.o
X509_get_default_private_dir                      output.o
X509_get_ex_data                                  output.o
X509_get_ex_new_index                             output.o
X509_get_ext                                      output.o
X509_get_ext_by_NID                               output.o
X509_get_ext_by_OBJ                               output.o
X509_get_ext_by_critical                          output.o
X509_get_ext_count                                output.o
X509_get_ext_d2i                                  output.o
X509_get_issuer_name                              output.o
X509_get_pubkey                                   output.o
X509_get_pubkey_parameters                        output.o
X509_get_serialNumber                             output.o
X509_get_subject_name                             output.o
X509_gmtime_adj                                   output.o
X509_issuer_and_serial_cmp                        output.o
X509_issuer_and_serial_hash                       output.o
X509_issuer_name_cmp                              output.o
X509_issuer_name_hash                             output.o
X509_issuer_name_hash_old                         output.o
X509_it                                           output.o
X509_keyid_get0                                   output.o
X509_keyid_set1                                   output.o
X509_new                                          output.o
X509_ocspid_print                                 output.o
X509_policy_check                                 output.o
X509_policy_level_get0_node                       output.o
X509_policy_level_node_count                      output.o
X509_policy_node_get0_parent                      output.o
X509_policy_node_get0_policy                      output.o
X509_policy_node_get0_qualifiers                  output.o
X509_policy_tree_free                             output.o
X509_policy_tree_get0_level                       output.o
X509_policy_tree_get0_policies                    output.o
X509_policy_tree_get0_user_policies               output.o
X509_policy_tree_level_count                      output.o
X509_print                                        output.o
X509_print_ex                                     output.o
X509_pubkey_digest                                output.o
X509_reject_clear                                 output.o
X509_set_ex_data                                  output.o
X509_sign                                         output.o
X509_signature_print                              output.o
X509_subject_name_cmp                             output.o
X509_subject_name_hash                            output.o
X509_subject_name_hash_old                        output.o
X509_supported_extension                          output.o
X509_time_adj                                     output.o
X509_time_adj_ex                                  output.o
X509_to_X509_REQ                                  output.o
X509_trust_clear                                  output.o
X509_verify                                       output.o
X509_verify_cert                                  output.o
X509_version                                      output.o
X509at_add1_attr                                  output.o
X509at_add1_attr_by_NID                           output.o
X509at_add1_attr_by_OBJ                           output.o
X509at_add1_attr_by_txt                           output.o
X509at_delete_attr                                output.o
X509at_get0_data_by_OBJ                           output.o
X509at_get_attr                                   output.o
X509at_get_attr_by_NID                            output.o
X509at_get_attr_by_OBJ                            output.o
X509at_get_attr_count                             output.o
X509v3_add_ext                                    output.o
X509v3_delete_ext                                 output.o
X509v3_get_ext                                    output.o
X509v3_get_ext_by_NID                             output.o
X509v3_get_ext_by_OBJ                             output.o
X509v3_get_ext_by_critical                        output.o
X509v3_get_ext_count                              output.o
X9_62_CHARACTERISTIC_TWO_free                     output.o
X9_62_CHARACTERISTIC_TWO_it                       output.o
X9_62_CHARACTERISTIC_TWO_new                      output.o
X9_62_CURVE_it                                    output.o
X9_62_FIELDID_it                                  output.o
X9_62_PENTANOMIAL_free                            output.o
X9_62_PENTANOMIAL_it                              output.o
X9_62_PENTANOMIAL_new                             output.o
ZLONG_it                                          output.o
_CONF_add_string                                  output.o
_CONF_free_data                                   output.o
_CONF_get_section                                 output.o
_CONF_get_section_values                          output.o
_CONF_get_string                                  output.o
_CONF_new_data                                    output.o
_CONF_new_section                                 output.o
_GLOBAL_OFFSET_TABLE_                             output.o
__initfunc_acpi_init_global                       output.o
__initfunc_acpi_init_paral                        output.o
__initfunc_ata_init                               output.o
__initfunc_beep_init_msg                          output.o
__initfunc_bnx_init                               output.o
__initfunc_cache_init_pass                        output.o
__initfunc_cache_init_pcpu                        output.o
__initfunc_cache_init_vcpu                        output.o
__initfunc_callrealmode_init_global               output.o
__initfunc_callrealmode_panic                     output.o
__initfunc_copy_minios                            output.o
__initfunc_core_init                              output.o
__initfunc_cpu_mmu_spt_init_global                output.o
__initfunc_cpu_mmu_spt_init_pcpu                  output.o
__initfunc_cpuid_init                             output.o
__initfunc_cpuid_pass_init                        output.o
__initfunc_create_pass_vm                         output.o
__initfunc_debug_on_shift_key                     output.o
__initfunc_echoctl_init_msg                       output.o
__initfunc_ehci_init                              output.o
__initfunc_end                                    output.o
__initfunc_exint_pass_init                        output.o
__initfunc_get_shiftflags                         output.o
__initfunc_gmm_pass_init                          output.o
__initfunc_idman_init                             output.o
__initfunc_idman_init_global                      output.o
__initfunc_idman_kernel_init                      output.o
__initfunc_ieee1394_hint                          output.o
__initfunc_ieee1394_init                          output.o
__initfunc_ieee1394_thunderbolt_conceal           output.o
__initfunc_ieee1394log_init                       output.o
__initfunc_install_int0x15_hook                   output.o
__initfunc_int_init_global                        output.o
__initfunc_int_wakeup                             output.o
__initfunc_io_io_init                             output.o
__initfunc_io_iopass_init                         output.o
__initfunc_iommu_setup                            output.o
__initfunc_keyboard_init_msg                      output.o
__initfunc_localapic_init                         output.o
__initfunc_localapic_init2                        output.o
__initfunc_mm_init_global                         output.o
__initfunc_mmio_debug                             output.o
__initfunc_mmio_init                              output.o
__initfunc_msg_init_global                        output.o
__initfunc_msr_init                               output.o
__initfunc_msr_pass_init                          output.o
__initfunc_net_main_init                          output.o
__initfunc_netapi_init                            output.o
__initfunc_nmi_pass_init                          output.o
__initfunc_nmi_pass_init_pcpu                     output.o
__initfunc_panic_init_global                      output.o
__initfunc_panic_init_global3                     output.o
__initfunc_panic_init_msg                         output.o
__initfunc_panic_init_pcpu                        output.o
__initfunc_pci_conceal_init                       output.o
__initfunc_pci_init                               output.o
__initfunc_pci_match_compat_init                  output.o
__initfunc_pci_monitor_init                       output.o
__initfunc_pci_monitor_init_msg                   output.o
__initfunc_print_boot_msg                         output.o
__initfunc_printf_init_global                     output.o
__initfunc_pro100_init                            output.o
__initfunc_process_init_ap                        output.o
__initfunc_process_init_global                    output.o
__initfunc_process_wakeup                         output.o
__initfunc_random_init_config0                    output.o
__initfunc_random_init_global                     output.o
__initfunc_reboot_init_msg                        output.o
__initfunc_resume_pro1000                         output.o
__initfunc_segment_init_global                    output.o
__initfunc_serial_init_msg                        output.o
__initfunc_setiohooks                             output.o
__initfunc_sleep_init_global                      output.o
__initfunc_sleep_init_msg                         output.o
__initfunc_start                                  output.o
__initfunc_storage_io_initfunc                    output.o
__initfunc_storage_kernel_init                    output.o
__initfunc_svm_panic                              output.o
__initfunc_sx_init_pass_init                      output.o
__initfunc_thread_init_global                     output.o
__initfunc_thread_init_pcpu                       output.o
__initfunc_time_init_dbsp                         output.o
__initfunc_time_init_global                       output.o
__initfunc_time_init_global_status                output.o
__initfunc_time_init_msg                          output.o
__initfunc_time_init_pcpu                         output.o
__initfunc_time_wakeup                            output.o
__initfunc_timer_init_global                      output.o
__initfunc_tty_init_global                        output.o
__initfunc_tty_init_global2                       output.o
__initfunc_tty_init_msg                           output.o
__initfunc_uefi_param_ext_init                    output.o
__initfunc_uhci_init                              output.o
__initfunc_unmap_user_area                        output.o
__initfunc_update_mtrr_and_pat                    output.o
__initfunc_vcpu_init_global                       output.o
__initfunc_vga_init                               output.o
__initfunc_virtualization_init_pcpu               output.o
__initfunc_vmmcall_boot_init                      output.o
__initfunc_vmmcall_dbgsh_init                     output.o
__initfunc_vmmcall_dbgsh_init_global              output.o
__initfunc_vmmcall_hello_init                     output.o
__initfunc_vmmcall_iccard_init                    output.o
__initfunc_vmmcall_init                           output.o
__initfunc_vmmcall_status_init                    output.o
__initfunc_vmmcall_status_init_global             output.o
__initfunc_vpn_kernel_init                        output.o
__initfunc_vpn_pro1000_init                       output.o
__initfunc_vramwrite_init_bsp                     output.o
__initfunc_vramwrite_init_msg                     output.o
__initfunc_vt_panic                               output.o
__initfunc_vt_register_status_callback            output.o
__initfunc_wait_for_create_pass_vm                output.o
__initfunc_x540_init                              output.o
__initfunc_xhci_init                              output.o
__initfunc_xsetbv_init                            output.o
__initfunc_xsetbv_pass_init                       output.o
__process_builtin                                 output.o
__process_builtin_end                             output.o
_dprintf                                          output.o
_dprintft                                         output.o
_shadow_DES_check_key                             output.o
a2d_ASN1_OBJECT                                   output.o
a2i_ASN1_INTEGER                                  output.o
a2i_ASN1_STRING                                   output.o
a2i_GENERAL_NAME                                  output.o
a2i_IPADDRESS                                     output.o
a2i_IPADDRESS_NC                                  output.o
a2i_ipadd                                         output.o
acpi_dsdt_parse                                   output.o
acpi_dsdt_system_state                            output.o
acpi_iohook                                       output.o
acpi_poweroff                                     output.o
acpi_read_mcfg                                    output.o
acpi_reset                                        output.o
acpi_smi_hook                                     output.o
acpi_ssdt_parse                                   output.o
add_remap                                         output.o
aes_xts_init                                      output.o
ahci_config_read                                  output.o
ahci_config_write                                 output.o
ahci_new                                          output.o
alloc                                             output.o
alloc2                                            output.o
alloc_handler_descriptor                          output.o
alloc_page                                        output.o
alloc_pages                                       output.o
alloc_realmodemem                                 output.o
ap_start_addr                                     output.o
apic_available                                    output.o
apinit_lock                                       output.o
apinit_procs                                      output.o
apinitproc0                                       output.o
app_pkey_methods                                  output.o
asm_vmlaunch_regs_32                              output.o
asm_vmlaunch_regs_64                              output.o
asm_vmresume_regs_32                              output.o
asm_vmresume_regs_64                              output.o
asm_vmrun_regs_32                                 output.o
asm_vmrun_regs_64                                 output.o
asm_vmrun_regs_nested_32                          output.o
asm_vmrun_regs_nested_64                          output.o
asn1_Finish                                       output.o
asn1_GetSequence                                  output.o
asn1_add_error                                    output.o
asn1_const_Finish                                 output.o
asn1_do_adb                                       output.o
asn1_do_lock                                      output.o
asn1_enc_free                                     output.o
asn1_enc_init                                     output.o
asn1_enc_restore                                  output.o
asn1_enc_save                                     output.o
asn1_ex_c2i                                       output.o
asn1_ex_i2c                                       output.o
asn1_get_choice_selector                          output.o
asn1_get_field_ptr                                output.o
asn1_set_choice_selector                          output.o
asn1_template_print_ctx                           output.o
assertion_failed                                  output.o
ata_ahci_mode                                     output.o
ata_bm_handle_command                             output.o
ata_bm_handle_device_specific                     output.o
ata_bm_handle_prd_table                           output.o
ata_bm_handle_status                              output.o
ata_bm_handler                                    output.o
ata_bm_handler_table                              output.o
ata_channel_lock                                  output.o
ata_channel_unlock                                output.o
ata_cmdblk_handler                                output.o
ata_cmdblk_handler_table                          output.o
ata_config_read                                   output.o
ata_config_write                                  output.o
ata_ctlblk_handler                                output.o
ata_ctlblk_handler_table                          output.o
ata_get_cmd_type                                  output.o
ata_handle_queued_status                          output.o
ata_init_io_handler                               output.o
ata_init_vendor                                   output.o
ata_set_bm_handler                                output.o
ata_set_cmdblk_handler                            output.o
ata_set_ctlblk_handler                            output.o
atapi_handle_cmd_packet                           output.o
atapi_handle_config_data                          output.o
atapi_handle_interrupt_reason                     output.o
atapi_handle_packet_data                          output.o
atapi_handle_pio_identify_packet                  output.o
auto_reboot                                       output.o
autoip_arp_reply                                  output.o
autoip_network_changed                            output.o
autoip_set_struct                                 output.o
autoip_start                                      output.o
autoip_stop                                       output.o
autoip_tmr                                        output.o
backtrace                                         output.o
beep_off                                          output.o
beep_on                                           output.o
beep_set_freq                                     output.o
bn_add_part_words                                 output.o
bn_add_words                                      output.o
bn_cmp_part_words                                 output.o
bn_cmp_words                                      output.o
bn_div_words                                      output.o
bn_dup_expand                                     output.o
bn_expand2                                        output.o
bn_mul_add_words                                  output.o
bn_mul_comba4                                     output.o
bn_mul_comba8                                     output.o
bn_mul_high                                       output.o
bn_mul_low_normal                                 output.o
bn_mul_low_recursive                              output.o
bn_mul_normal                                     output.o
bn_mul_part_recursive                             output.o
bn_mul_recursive                                  output.o
bn_mul_words                                      output.o
bn_sqr_comba4                                     output.o
bn_sqr_comba8                                     output.o
bn_sqr_normal                                     output.o
bn_sqr_recursive                                  output.o
bn_sqr_words                                      output.o
bn_sub_part_words                                 output.o
bn_sub_words                                      output.o
bss                                               output.o
c2i_ASN1_BIT_STRING                               output.o
c2i_ASN1_INTEGER                                  output.o
c2i_ASN1_OBJECT                                   output.o
cache_get_attr                                    output.o
cache_get_gmsr_amd                                output.o
cache_get_gmtrr                                   output.o
cache_get_gmtrr_attr                              output.o
cache_get_gmtrr_type                              output.o
cache_get_gmtrrcap                                output.o
cache_get_gpat                                    output.o
cache_gmtrr_type_equal                            output.o
cache_set_gmsr_amd                                output.o
cache_set_gmtrr                                   output.o
cache_set_gpat                                    output.o
call_cpuid                                        output.o
call_initfunc                                     output.o
call_io                                           output.o
call_read_msr                                     output.o
call_uefi_allocate_pages                          output.o
call_uefi_disconnect_pcidev_driver                output.o
call_uefi_free_pages                              output.o
call_uefi_get_memory_map                          output.o
call_uefi_getkey                                  output.o
call_uefi_putchar                                 output.o
call_write_msr                                    output.o
call_xsetbv                                       output.o
callfunc_and_getint                               output.o
callrealmode_bootcd_getstatus                     output.o
callrealmode_disk_readlba                         output.o
callrealmode_disk_readmbr                         output.o
callrealmode_end                                  output.o
callrealmode_endofcodeaddr                        output.o
callrealmode_getfontinfo                          output.o
callrealmode_getshiftflags                        output.o
callrealmode_getsysmemmap                         output.o
callrealmode_printmsg                             output.o
callrealmode_reboot                               output.o
callrealmode_setcursorpos                         output.o
callrealmode_setvideomode                         output.o
callrealmode_start                                output.o
callrealmode_start2                               output.o
callrealmode_startkernel32                        output.o
callrealmode_tcgbios                              output.o
callrealmode_usevcpu                              output.o
calluefi                                          output.o
calluefi_uefi_cr3                                 output.o
calluefi_uefi_gdtr                                output.o
calluefi_uefi_idtr                                output.o
calluefi_uefi_ldtr                                output.o
calluefi_uefi_sregs                               output.o
cancel_sleep                                      output.o
check_defer                                       output.o
chelp_abort                                       output.o
chelp_bsearch                                     output.o
chelp_div_64_32_32                                output.o
chelp_div_64_32_64                                output.o
chelp_free                                        output.o
chelp_inited                                      output.o
chelp_isalnum                                     output.o
chelp_isalpha                                     output.o
chelp_isdigit                                     output.o
chelp_islower                                     output.o
chelp_isspace                                     output.o
chelp_isupper                                     output.o
chelp_isxdigit                                    output.o
chelp_malloc                                      output.o
chelp_memchr                                      output.o
chelp_memcmp                                      output.o
chelp_memcpy                                      output.o
chelp_memmove                                     output.o
chelp_memset                                      output.o
chelp_mod_64_32_32                                output.o
chelp_mul_64_64_64                                output.o
chelp_print                                       output.o
chelp_printf                                      output.o
chelp_qsort                                       output.o
chelp_realloc                                     output.o
chelp_snprintf                                    output.o
chelp_sprintf                                     output.o
chelp_strcat                                      output.o
chelp_strchr                                      output.o
chelp_strcmp                                      output.o
chelp_strcpy                                      output.o
chelp_stricmp                                     output.o
chelp_strlen                                      output.o
chelp_strncasecmp                                 output.o
chelp_strncmp                                     output.o
chelp_strncpy                                     output.o
chelp_strrchr                                     output.o
chelp_strtol                                      output.o
chelp_strtoul                                     output.o
chelp_strtoul_ex                                  output.o
chelp_swap                                        output.o
chelp_tolower                                     output.o
chelp_toupper                                     output.o
cleanse_ctr                                       output.o
clflush_size                                      output.o
cmpxchg_gphys_l                                   output.o
cmpxchg_gphys_q                                   output.o
cmpxchg_hphys_l                                   output.o
cmpxchg_hphys_q                                   output.o
cms_Data_create                                   output.o
cms_DigestAlgorithm_find_ctx                      output.o
cms_DigestAlgorithm_init_bio                      output.o
cms_DigestAlgorithm_set                           output.o
cms_DigestedData_create                           output.o
cms_DigestedData_do_final                         output.o
cms_DigestedData_init_bio                         output.o
cms_EncryptedContent_init                         output.o
cms_EncryptedContent_init_bio                     output.o
cms_EncryptedData_init_bio                        output.o
cms_EnvelopedData_init_bio                        output.o
cms_SignedData_final                              output.o
cms_SignedData_init_bio                           output.o
cms_SignerIdentifier_cert_cmp                     output.o
cms_SignerIdentifier_get0_signer_id               output.o
cms_content_bio                                   output.o
cms_set1_SignerIdentifier                         output.o
code                                              output.o
codeend                                           output.o
config                                            output.o
copy_bootsector                                   output.o
copy_uefi_bootcode                                output.o
core_init                                         output.o
core_io_handle_default                            output.o
core_io_modify_handler                            output.o
core_io_register_handler                          output.o
core_io_unregister_handler                        output.o
core_mm_read_guest_phys                           output.o
core_mm_write_guest_phys                          output.o
cpu_emul_cli                                      output.o
cpu_emul_cpuid                                    output.o
cpu_emul_hlt                                      output.o
cpu_emul_rdmsr                                    output.o
cpu_emul_realmode_int                             output.o
cpu_emul_sti                                      output.o
cpu_emul_wrmsr                                    output.o
cpu_emul_xsetbv                                   output.o
cpu_interpreter                                   output.o
cpu_mmu_get_pte                                   output.o
cpu_mmu_spt_clear_all                             output.o
cpu_mmu_spt_extern_mapsearch                      output.o
cpu_mmu_spt_init                                  output.o
cpu_mmu_spt_invalidate                            output.o
cpu_mmu_spt_map_1mb                               output.o
cpu_mmu_spt_pagefault                             output.o
cpu_mmu_spt_tlbflush                              output.o
cpu_mmu_spt_updatecr3                             output.o
cpu_seg_read_b                                    output.o
cpu_seg_read_l                                    output.o
cpu_seg_read_q                                    output.o
cpu_seg_read_w                                    output.o
cpu_seg_write_b                                   output.o
cpu_seg_write_l                                   output.o
cpu_seg_write_q                                   output.o
cpu_seg_write_w                                   output.o
cpu_stack_get                                     output.o
cpu_stack_pop                                     output.o
cpu_stack_push                                    output.o
cpu_stack_set                                     output.o
cpuinit_end                                       output.o
cpuinit_start                                     output.o
crc32                                             output.o
create_dom                                        output.o
crypt_sys_rsa_sign                                output.o
crypto_find                                       output.o
crypto_init                                       output.o
crypto_none_init                                  output.o
crypto_register                                   output.o
current_header                                    output.o
current_iphdr_dest                                output.o
current_iphdr_src                                 output.o
current_netif                                     output.o
curthread                                         output.o
d2i_ACCESS_DESCRIPTION                            output.o
d2i_ASN1_BIT_STRING                               output.o
d2i_ASN1_BMPSTRING                                output.o
d2i_ASN1_BOOLEAN                                  output.o
d2i_ASN1_ENUMERATED                               output.o
d2i_ASN1_GENERALIZEDTIME                          output.o
d2i_ASN1_GENERALSTRING                            output.o
d2i_ASN1_IA5STRING                                output.o
d2i_ASN1_INTEGER                                  output.o
d2i_ASN1_NULL                                     output.o
d2i_ASN1_OBJECT                                   output.o
d2i_ASN1_OCTET_STRING                             output.o
d2i_ASN1_PRINTABLE                                output.o
d2i_ASN1_PRINTABLESTRING                          output.o
d2i_ASN1_SEQUENCE_ANY                             output.o
d2i_ASN1_SET                                      output.o
d2i_ASN1_SET_ANY                                  output.o
d2i_ASN1_T61STRING                                output.o
d2i_ASN1_TIME                                     output.o
d2i_ASN1_TYPE                                     output.o
d2i_ASN1_UINTEGER                                 output.o
d2i_ASN1_UNIVERSALSTRING                          output.o
d2i_ASN1_UTCTIME                                  output.o
d2i_ASN1_UTF8STRING                               output.o
d2i_ASN1_VISIBLESTRING                            output.o
d2i_ASN1_bytes                                    output.o
d2i_ASN1_type_bytes                               output.o
d2i_AUTHORITY_INFO_ACCESS                         output.o
d2i_AUTHORITY_KEYID                               output.o
d2i_AutoPrivateKey                                output.o
d2i_BASIC_CONSTRAINTS                             output.o
d2i_CERTIFICATEPOLICIES                           output.o
d2i_CMS_ContentInfo                               output.o
d2i_CMS_bio                                       output.o
d2i_CRL_DIST_POINTS                               output.o
d2i_DHparams                                      output.o
d2i_DIRECTORYSTRING                               output.o
d2i_DISPLAYTEXT                                   output.o
d2i_DIST_POINT                                    output.o
d2i_DIST_POINT_NAME                               output.o
d2i_DSAPrivateKey                                 output.o
d2i_DSAPrivateKey_bio                             output.o
d2i_DSAPublicKey                                  output.o
d2i_DSA_PUBKEY                                    output.o
d2i_DSA_PUBKEY_bio                                output.o
d2i_DSA_SIG                                       output.o
d2i_DSAparams                                     output.o
d2i_ECDSA_SIG                                     output.o
d2i_ECPKPARAMETERS                                output.o
d2i_ECPKParameters                                output.o
d2i_ECParameters                                  output.o
d2i_ECPrivateKey                                  output.o
d2i_ECPrivateKey_bio                              output.o
d2i_EC_PRIVATEKEY                                 output.o
d2i_EC_PUBKEY                                     output.o
d2i_EC_PUBKEY_bio                                 output.o
d2i_EDIPARTYNAME                                  output.o
d2i_EXTENDED_KEY_USAGE                            output.o
d2i_GENERAL_NAME                                  output.o
d2i_GENERAL_NAMES                                 output.o
d2i_ISSUING_DIST_POINT                            output.o
d2i_NETSCAPE_CERT_SEQUENCE                        output.o
d2i_NETSCAPE_SPKAC                                output.o
d2i_NETSCAPE_SPKI                                 output.o
d2i_NOTICEREF                                     output.o
d2i_OCSP_BASICRESP                                output.o
d2i_OCSP_CERTID                                   output.o
d2i_OCSP_CERTSTATUS                               output.o
d2i_OCSP_CRLID                                    output.o
d2i_OCSP_ONEREQ                                   output.o
d2i_OCSP_REQINFO                                  output.o
d2i_OCSP_REQUEST                                  output.o
d2i_OCSP_RESPBYTES                                output.o
d2i_OCSP_RESPDATA                                 output.o
d2i_OCSP_RESPID                                   output.o
d2i_OCSP_RESPONSE                                 output.o
d2i_OCSP_REVOKEDINFO                              output.o
d2i_OCSP_SERVICELOC                               output.o
d2i_OCSP_SIGNATURE                                output.o
d2i_OCSP_SINGLERESP                               output.o
d2i_OTHERNAME                                     output.o
d2i_PBE2PARAM                                     output.o
d2i_PBEPARAM                                      output.o
d2i_PBKDF2PARAM                                   output.o
d2i_PKCS12                                        output.o
d2i_PKCS12_BAGS                                   output.o
d2i_PKCS12_MAC_DATA                               output.o
d2i_PKCS12_SAFEBAG                                output.o
d2i_PKCS12_bio                                    output.o
d2i_PKCS7                                         output.o
d2i_PKCS7_DIGEST                                  output.o
d2i_PKCS7_ENCRYPT                                 output.o
d2i_PKCS7_ENC_CONTENT                             output.o
d2i_PKCS7_ENVELOPE                                output.o
d2i_PKCS7_ISSUER_AND_SERIAL                       output.o
d2i_PKCS7_RECIP_INFO                              output.o
d2i_PKCS7_SIGNED                                  output.o
d2i_PKCS7_SIGNER_INFO                             output.o
d2i_PKCS7_SIGN_ENVELOPE                           output.o
d2i_PKCS7_bio                                     output.o
d2i_PKCS8PrivateKey_bio                           output.o
d2i_PKCS8_PRIV_KEY_INFO                           output.o
d2i_PKCS8_PRIV_KEY_INFO_bio                       output.o
d2i_PKCS8_bio                                     output.o
d2i_PKEY_USAGE_PERIOD                             output.o
d2i_POLICYINFO                                    output.o
d2i_POLICYQUALINFO                                output.o
d2i_PROXY_CERT_INFO_EXTENSION                     output.o
d2i_PROXY_POLICY                                  output.o
d2i_PUBKEY                                        output.o
d2i_PUBKEY_bio                                    output.o
d2i_PrivateKey                                    output.o
d2i_PrivateKey_bio                                output.o
d2i_RSAPrivateKey                                 output.o
d2i_RSAPrivateKey_bio                             output.o
d2i_RSAPublicKey                                  output.o
d2i_RSAPublicKey_bio                              output.o
d2i_RSA_PUBKEY                                    output.o
d2i_RSA_PUBKEY_bio                                output.o
d2i_SXNET                                         output.o
d2i_SXNETID                                       output.o
d2i_USERNOTICE                                    output.o
d2i_X509                                          output.o
d2i_X509_ALGOR                                    output.o
d2i_X509_ALGORS                                   output.o
d2i_X509_ATTRIBUTE                                output.o
d2i_X509_AUX                                      output.o
d2i_X509_CERT_AUX                                 output.o
d2i_X509_CERT_PAIR                                output.o
d2i_X509_CINF                                     output.o
d2i_X509_CRL                                      output.o
d2i_X509_CRL_INFO                                 output.o
d2i_X509_CRL_bio                                  output.o
d2i_X509_EXTENSION                                output.o
d2i_X509_EXTENSIONS                               output.o
d2i_X509_NAME                                     output.o
d2i_X509_NAME_ENTRY                               output.o
d2i_X509_PUBKEY                                   output.o
d2i_X509_REQ                                      output.o
d2i_X509_REQ_INFO                                 output.o
d2i_X509_REQ_bio                                  output.o
d2i_X509_REVOKED                                  output.o
d2i_X509_SIG                                      output.o
d2i_X509_VAL                                      output.o
d2i_X509_bio                                      output.o
dataend                                           output.o
deactivate_and_delete_urb                         output.o
debug_gdb                                         output.o
debug_iohook                                      output.o
debug_msgregister                                 output.o
debug_msgunregister                               output.o
decryptcfg                                        output.o
default_pctx                                      output.o
dh_asn1_meth                                      output.o
dh_pkey_meth                                      output.o
dhcp_cleanup                                      output.o
dhcp_coarse_tmr                                   output.o
dhcp_fine_tmr                                     output.o
dhcp_inform                                       output.o
dhcp_network_changed                              output.o
dhcp_release                                      output.o
dhcp_renew                                        output.o
dhcp_rx_options_given                             output.o
dhcp_rx_options_val                               output.o
dhcp_set_struct                                   output.o
dhcp_start                                        output.o
dhcp_stop                                         output.o
disable_apic                                      output.o
disconnect_pcidev_driver                          output.o
dns_gethostbyname                                 output.o
dns_getserver                                     output.o
dns_init                                          output.o
dns_setserver                                     output.o
dns_tmr                                           output.o
do_exint_pass                                     output.o
do_externalint_enable                             output.o
do_io_nothing                                     output.o
do_iopass_default                                 output.o
do_panic_reboot                                   output.o
dom_io                                            output.o
dprintf_port                                      output.o
drhd_list_head                                    output.o
dsa_asn1_meths                                    output.o
dsa_builtin_paramgen                              output.o
dsa_pkey_meth                                     output.o
dsa_pub_internal_it                               output.o
dump_frame                                        output.o
dump_qh                                           output.o
dump_td                                           output.o
dump_td_byvirt                                    output.o
dwReaders                                         output.o
e801_fake_ax                                      output.o
e801_fake_bx                                      output.o
ec_GF2m_have_precompute_mult                      output.o
ec_GF2m_precompute_mult                           output.o
ec_GF2m_simple_add                                output.o
ec_GF2m_simple_cmp                                output.o
ec_GF2m_simple_dbl                                output.o
ec_GF2m_simple_field_div                          output.o
ec_GF2m_simple_field_mul                          output.o
ec_GF2m_simple_field_sqr                          output.o
ec_GF2m_simple_group_check_discriminant           output.o
ec_GF2m_simple_group_clear_finish                 output.o
ec_GF2m_simple_group_copy                         output.o
ec_GF2m_simple_group_finish                       output.o
ec_GF2m_simple_group_get_curve                    output.o
ec_GF2m_simple_group_get_degree                   output.o
ec_GF2m_simple_group_init                         output.o
ec_GF2m_simple_group_set_curve                    output.o
ec_GF2m_simple_invert                             output.o
ec_GF2m_simple_is_at_infinity                     output.o
ec_GF2m_simple_is_on_curve                        output.o
ec_GF2m_simple_make_affine                        output.o
ec_GF2m_simple_mul                                output.o
ec_GF2m_simple_oct2point                          output.o
ec_GF2m_simple_point2oct                          output.o
ec_GF2m_simple_point_clear_finish                 output.o
ec_GF2m_simple_point_copy                         output.o
ec_GF2m_simple_point_finish                       output.o
ec_GF2m_simple_point_get_affine_coordinates       output.o
ec_GF2m_simple_point_init                         output.o
ec_GF2m_simple_point_set_affine_coordinates       output.o
ec_GF2m_simple_point_set_to_infinity              output.o
ec_GF2m_simple_points_make_affine                 output.o
ec_GF2m_simple_set_compressed_coordinates         output.o
ec_GFp_mont_field_decode                          output.o
ec_GFp_mont_field_encode                          output.o
ec_GFp_mont_field_mul                             output.o
ec_GFp_mont_field_set_to_one                      output.o
ec_GFp_mont_field_sqr                             output.o
ec_GFp_mont_group_clear_finish                    output.o
ec_GFp_mont_group_copy                            output.o
ec_GFp_mont_group_finish                          output.o
ec_GFp_mont_group_init                            output.o
ec_GFp_mont_group_set_curve                       output.o
ec_GFp_nist_field_mul                             output.o
ec_GFp_nist_field_sqr                             output.o
ec_GFp_nist_group_copy                            output.o
ec_GFp_nist_group_set_curve                       output.o
ec_GFp_simple_add                                 output.o
ec_GFp_simple_cmp                                 output.o
ec_GFp_simple_dbl                                 output.o
ec_GFp_simple_field_mul                           output.o
ec_GFp_simple_field_sqr                           output.o
ec_GFp_simple_get_Jprojective_coordinates_GFp     output.o
ec_GFp_simple_group_check_discriminant            output.o
ec_GFp_simple_group_clear_finish                  output.o
ec_GFp_simple_group_copy                          output.o
ec_GFp_simple_group_finish                        output.o
ec_GFp_simple_group_get_curve                     output.o
ec_GFp_simple_group_get_degree                    output.o
ec_GFp_simple_group_init                          output.o
ec_GFp_simple_group_set_curve                     output.o
ec_GFp_simple_invert                              output.o
ec_GFp_simple_is_at_infinity                      output.o
ec_GFp_simple_is_on_curve                         output.o
ec_GFp_simple_make_affine                         output.o
ec_GFp_simple_oct2point                           output.o
ec_GFp_simple_point2oct                           output.o
ec_GFp_simple_point_clear_finish                  output.o
ec_GFp_simple_point_copy                          output.o
ec_GFp_simple_point_finish                        output.o
ec_GFp_simple_point_get_affine_coordinates        output.o
ec_GFp_simple_point_init                          output.o
ec_GFp_simple_point_set_affine_coordinates        output.o
ec_GFp_simple_point_set_to_infinity               output.o
ec_GFp_simple_points_make_affine                  output.o
ec_GFp_simple_set_Jprojective_coordinates_GFp     output.o
ec_GFp_simple_set_compressed_coordinates          output.o
ec_pkey_meth                                      output.o
ec_wNAF_have_precompute_mult                      output.o
ec_wNAF_mul                                       output.o
ec_wNAF_precompute_mult                           output.o
ecdh_check                                        output.o
ecdsa_check                                       output.o
echo_client_init                                  output.o
echo_client_send                                  output.o
echo_server_init                                  output.o
eckey_asn1_meth                                   output.o
ehci_check_advance                                output.o
ehci_check_urb_advance                            output.o
ehci_cleanup_urbs                                 output.o
ehci_conceal_portroute                            output.o
ehci_deactivate_urb                               output.o
ehci_dump_alist                                   output.o
ehci_dump_all                                     output.o
ehci_dump_async                                   output.o
ehci_dump_qtd                                     output.o
ehci_dump_qtdm                                    output.o
ehci_dump_urb                                     output.o
ehci_dump_urblist                                 output.o
ehci_end_monitor_async                            output.o
ehci_host                                         output.o
ehci_init                                         output.o
ehci_monitor_async_list                           output.o
ehci_shadow_async_list                            output.o
ehci_shadow_buffer                                output.o
ehci_submit_bulk                                  output.o
ehci_submit_control                               output.o
ehci_submit_interrupt                             output.o
end                                               output.o
entry                                             output.o
entry_pd                                          output.o
entry_pd0                                         output.o
entry_pdp                                         output.o
etharp_cleanup_netif                              output.o
etharp_find_addr                                  output.o
etharp_output                                     output.o
etharp_query                                      output.o
etharp_raw                                        output.o
etharp_request                                    output.o
etharp_tmr                                        output.o
ethbroadcast                                      output.o
ethernet_input                                    output.o
ethzero                                           output.o
evp_pkey_set_cb_translate                         output.o
exint_pass_intr_alloc                             output.o
exint_pass_intr_free                              output.o
exint_pass_intr_register_callback                 output.o
exitprocess                                       output.o
fill_pagetable                                    output.o
free                                              output.o
free_config_descriptors                           output.o
free_device                                       output.o
free_page                                         output.o
free_page_phys                                    output.o
g_rgSCardT0Pci                                    output.o
g_rgSCardT1Pci                                    output.o
get_acpi_time                                     output.o
get_acpi_time_raw                                 output.o
get_cpu_id                                        output.o
get_cpu_time                                      output.o
get_gurb_by_address                               output.o
get_idman_session                                 output.o
get_seg_access_rights                             output.o
get_seg_base                                      output.o
get_time                                          output.o
getfakesysmemmap                                  output.o
getsysmemmap                                      output.o
gmm_pass_getforcemap                              output.o
gmm_pass_gp2hp                                    output.o
gmm_pass_gp2hp_2m                                 output.o
gs_current                                        output.o
gs_currentcpu                                     output.o
gs_init_count                                     output.o
gs_inthandling                                    output.o
gs_nmi                                            output.o
gs_syscallstack                                   output.o
guest_int0x15_e801_fake_ax                        output.o
guest_int0x15_e801_fake_bx                        output.o
guest_int0x15_e820_data_minus0x18                 output.o
guest_int0x15_e820_end                            output.o
guest_int0x15_hook                                output.o
guest_int0x15_hook_end                            output.o
guest_int0x15_orig                                output.o
hContext                                          output.o
hObjectCnt                                        output.o
hSessionCnt                                       output.o
handle_connect_status                             output.o
handle_init_to_bsp                                output.o
handle_port_reset                                 output.o
handler_descriptor                                output.o
handler_descriptor_lock                           output.o
head                                              output.o
hex_to_string                                     output.o
hmac_asn1_meth                                    output.o
hmac_pkey_meth                                    output.o
hub_portdevice_register                           output.o
i2a_ACCESS_DESCRIPTION                            output.o
i2a_ASN1_INTEGER                                  output.o
i2a_ASN1_OBJECT                                   output.o
i2a_ASN1_STRING                                   output.o
i2c_ASN1_BIT_STRING                               output.o
i2c_ASN1_INTEGER                                  output.o
i2d_ACCESS_DESCRIPTION                            output.o
i2d_ASN1_BIT_STRING                               output.o
i2d_ASN1_BMPSTRING                                output.o
i2d_ASN1_BOOLEAN                                  output.o
i2d_ASN1_ENUMERATED                               output.o
i2d_ASN1_GENERALIZEDTIME                          output.o
i2d_ASN1_GENERALSTRING                            output.o
i2d_ASN1_IA5STRING                                output.o
i2d_ASN1_INTEGER                                  output.o
i2d_ASN1_NULL                                     output.o
i2d_ASN1_OBJECT                                   output.o
i2d_ASN1_OCTET_STRING                             output.o
i2d_ASN1_PRINTABLE                                output.o
i2d_ASN1_PRINTABLESTRING                          output.o
i2d_ASN1_SEQUENCE_ANY                             output.o
i2d_ASN1_SET                                      output.o
i2d_ASN1_SET_ANY                                  output.o
i2d_ASN1_T61STRING                                output.o
i2d_ASN1_TIME                                     output.o
i2d_ASN1_TYPE                                     output.o
i2d_ASN1_UNIVERSALSTRING                          output.o
i2d_ASN1_UTCTIME                                  output.o
i2d_ASN1_UTF8STRING                               output.o
i2d_ASN1_VISIBLESTRING                            output.o
i2d_ASN1_bio_stream                               output.o
i2d_ASN1_bytes                                    output.o
i2d_AUTHORITY_INFO_ACCESS                         output.o
i2d_AUTHORITY_KEYID                               output.o
i2d_BASIC_CONSTRAINTS                             output.o
i2d_CERTIFICATEPOLICIES                           output.o
i2d_CMS_ContentInfo                               output.o
i2d_CMS_bio                                       output.o
i2d_CMS_bio_stream                                output.o
i2d_CRL_DIST_POINTS                               output.o
i2d_DHparams                                      output.o
i2d_DIRECTORYSTRING                               output.o
i2d_DISPLAYTEXT                                   output.o
i2d_DIST_POINT                                    output.o
i2d_DIST_POINT_NAME                               output.o
i2d_DSAPrivateKey                                 output.o
i2d_DSAPrivateKey_bio                             output.o
i2d_DSAPublicKey                                  output.o
i2d_DSA_PUBKEY                                    output.o
i2d_DSA_PUBKEY_bio                                output.o
i2d_DSA_SIG                                       output.o
i2d_DSAparams                                     output.o
i2d_ECDSA_SIG                                     output.o
i2d_ECPKPARAMETERS                                output.o
i2d_ECPKParameters                                output.o
i2d_ECParameters                                  output.o
i2d_ECPrivateKey                                  output.o
i2d_ECPrivateKey_bio                              output.o
i2d_EC_PRIVATEKEY                                 output.o
i2d_EC_PUBKEY                                     output.o
i2d_EC_PUBKEY_bio                                 output.o
i2d_EDIPARTYNAME                                  output.o
i2d_EXTENDED_KEY_USAGE                            output.o
i2d_GENERAL_NAME                                  output.o
i2d_GENERAL_NAMES                                 output.o
i2d_ISSUING_DIST_POINT                            output.o
i2d_NETSCAPE_CERT_SEQUENCE                        output.o
i2d_NETSCAPE_SPKAC                                output.o
i2d_NETSCAPE_SPKI                                 output.o
i2d_NOTICEREF                                     output.o
i2d_OCSP_BASICRESP                                output.o
i2d_OCSP_CERTID                                   output.o
i2d_OCSP_CERTSTATUS                               output.o
i2d_OCSP_CRLID                                    output.o
i2d_OCSP_ONEREQ                                   output.o
i2d_OCSP_REQINFO                                  output.o
i2d_OCSP_REQUEST                                  output.o
i2d_OCSP_RESPBYTES                                output.o
i2d_OCSP_RESPDATA                                 output.o
i2d_OCSP_RESPID                                   output.o
i2d_OCSP_RESPONSE                                 output.o
i2d_OCSP_REVOKEDINFO                              output.o
i2d_OCSP_SERVICELOC                               output.o
i2d_OCSP_SIGNATURE                                output.o
i2d_OCSP_SINGLERESP                               output.o
i2d_OTHERNAME                                     output.o
i2d_PBE2PARAM                                     output.o
i2d_PBEPARAM                                      output.o
i2d_PBKDF2PARAM                                   output.o
i2d_PKCS12                                        output.o
i2d_PKCS12_BAGS                                   output.o
i2d_PKCS12_MAC_DATA                               output.o
i2d_PKCS12_SAFEBAG                                output.o
i2d_PKCS12_bio                                    output.o
i2d_PKCS7                                         output.o
i2d_PKCS7_DIGEST                                  output.o
i2d_PKCS7_ENCRYPT                                 output.o
i2d_PKCS7_ENC_CONTENT                             output.o
i2d_PKCS7_ENVELOPE                                output.o
i2d_PKCS7_ISSUER_AND_SERIAL                       output.o
i2d_PKCS7_NDEF                                    output.o
i2d_PKCS7_RECIP_INFO                              output.o
i2d_PKCS7_SIGNED                                  output.o
i2d_PKCS7_SIGNER_INFO                             output.o
i2d_PKCS7_SIGN_ENVELOPE                           output.o
i2d_PKCS7_bio                                     output.o
i2d_PKCS8PrivateKeyInfo_bio                       output.o
i2d_PKCS8PrivateKey_bio                           output.o
i2d_PKCS8PrivateKey_nid_bio                       output.o
i2d_PKCS8_PRIV_KEY_INFO                           output.o
i2d_PKCS8_PRIV_KEY_INFO_bio                       output.o
i2d_PKCS8_bio                                     output.o
i2d_PKEY_USAGE_PERIOD                             output.o
i2d_POLICYINFO                                    output.o
i2d_POLICYQUALINFO                                output.o
i2d_PROXY_CERT_INFO_EXTENSION                     output.o
i2d_PROXY_POLICY                                  output.o
i2d_PUBKEY                                        output.o
i2d_PUBKEY_bio                                    output.o
i2d_PrivateKey                                    output.o
i2d_PrivateKey_bio                                output.o
i2d_RSAPrivateKey                                 output.o
i2d_RSAPrivateKey_bio                             output.o
i2d_RSAPublicKey                                  output.o
i2d_RSAPublicKey_bio                              output.o
i2d_RSA_PUBKEY                                    output.o
i2d_RSA_PUBKEY_bio                                output.o
i2d_SXNET                                         output.o
i2d_SXNETID                                       output.o
i2d_USERNOTICE                                    output.o
i2d_X509                                          output.o
i2d_X509_ALGOR                                    output.o
i2d_X509_ALGORS                                   output.o
i2d_X509_ATTRIBUTE                                output.o
i2d_X509_AUX                                      output.o
i2d_X509_CERT_AUX                                 output.o
i2d_X509_CERT_PAIR                                output.o
i2d_X509_CINF                                     output.o
i2d_X509_CRL                                      output.o
i2d_X509_CRL_INFO                                 output.o
i2d_X509_CRL_bio                                  output.o
i2d_X509_EXTENSION                                output.o
i2d_X509_EXTENSIONS                               output.o
i2d_X509_NAME                                     output.o
i2d_X509_NAME_ENTRY                               output.o
i2d_X509_PUBKEY                                   output.o
i2d_X509_REQ                                      output.o
i2d_X509_REQ_INFO                                 output.o
i2d_X509_REQ_bio                                  output.o
i2d_X509_REVOKED                                  output.o
i2d_X509_SIG                                      output.o
i2d_X509_VAL                                      output.o
i2d_X509_bio                                      output.o
i2o_ECPublicKey                                   output.o
i2s_ASN1_ENUMERATED                               output.o
i2s_ASN1_ENUMERATED_TABLE                         output.o
i2s_ASN1_INTEGER                                  output.o
i2s_ASN1_OCTET_STRING                             output.o
i2t_ASN1_OBJECT                                   output.o
i2v_ASN1_BIT_STRING                               output.o
i2v_GENERAL_NAME                                  output.o
i2v_GENERAL_NAMES                                 output.o
icmp_dest_unreach                                 output.o
icmp_input                                        output.o
icmp_time_exceeded                                output.o
idea_cbc_encrypt                                  output.o
idea_cfb64_encrypt                                output.o
idea_ecb_encrypt                                  output.o
idea_encrypt                                      output.o
idea_ofb64_encrypt                                output.o
idea_options                                      output.o
idea_set_decrypt_key                              output.o
idea_set_encrypt_key                              output.o
idman_reinit2                                     output.o
idman_reinit_session                              output.o
idman_user_init                                   output.o
ieee1394_init                                     output.o
inet_chksum                                       output.o
inet_chksum_pbuf                                  output.o
inet_chksum_pseudo                                output.o
inet_chksum_pseudo_partial                        output.o
init_hframelist                                   output.o
initfunc_init                                     output.o
int1a_TCG_CompactHashLogExtendEvent               output.o
int1a_TCG_HashAll                                 output.o
int1a_TCG_HashLogEvent                            output.o
int1a_TCG_HashLogExtendEvent                      output.o
int1a_TCG_PassThroughToTPM                        output.o
int1a_TCG_StatusCheck                             output.o
int1a_TCG_TSS                                     output.o
int_callfunc                                      output.o
int_exceptionHandler                              output.o
int_fatal                                         output.o
int_handler                                       output.o
int_init_ap                                       output.o
int_rsa_verify                                    output.o
iodom_init                                        output.o
iommu_detected                                    output.o
iommu_setup                                       output.o
ip4_addr_isbroadcast                              output.o
ip4_addr_netmask_valid                            output.o
ip_addr_any                                       output.o
ip_addr_broadcast                                 output.o
ip_frag                                           output.o
ip_input                                          output.o
ip_main_init                                      output.o
ip_main_input                                     output.o
ip_main_task                                      output.o
ip_output                                         output.o
ip_output_if                                      output.o
ip_reass                                          output.o
ip_reass_tmr                                      output.o
ip_route                                          output.o
ip_sys_now                                        output.o
ipaddr_addr                                       output.o
ipaddr_aton                                       output.o
ipaddr_ntoa                                       output.o
ipaddr_ntoa_r                                     output.o
ipchecksum                                        output.o
keyboard_flush                                    output.o
keyboard_reset                                    output.o
level_add_node                                    output.o
level_find_node                                   output.o
lh_delete                                         output.o
lh_doall                                          output.o
lh_doall_arg                                      output.o
lh_free                                           output.o
lh_insert                                         output.o
lh_new                                            output.o
lh_num_items                                      output.o
lh_retrieve                                       output.o
lh_strhash                                        output.o
lh_version                                        output.o
libInitFlag                                       output.o
load_bootsector                                   output.o
load_minios                                       output.o
load_new_vcpu                                     output.o
localapic_change_base_msr                         output.o
localapic_delayed_ap_start                        output.o
localapic_mmio_register                           output.o
localapic_wait_for_sipi                           output.o
localapic_x2apic_icr                              output.o
lwip_htonl                                        output.o
lwip_htons                                        output.o
lwip_init                                         output.o
lwip_ntohl                                        output.o
lwip_ntohs                                        output.o
mapmem                                            output.o
mapmem_gphys                                      output.o
mapmem_hphys                                      output.o
matched_drhd_u                                    output.o
md4_block_data_order                              output.o
md5_block_data_order                              output.o
mem_calloc                                        output.o
mem_free                                          output.o
mem_init                                          output.o
mem_malloc                                        output.o
mem_trim                                          output.o
memcmp                                            output.o
memcpy                                            output.o
memorysize                                        output.o
memp_free                                         output.o
memp_init                                         output.o
memp_malloc                                       output.o
mempool_allocmem                                  output.o
mempool_free                                      output.o
mempool_freemem                                   output.o
mempool_new                                       output.o
memset                                            output.o
message_exitcode                                  output.o
message_exitreason                                output.o
mm_flush_wb_cache                                 output.o
mm_force_unlock                                   output.o
mm_free_panicmem                                  output.o
mm_get_panicmem                                   output.o
mm_process_alloc                                  output.o
mm_process_free                                   output.o
mm_process_map_alloc                              output.o
mm_process_map_shared                             output.o
mm_process_map_shared_physpage                    output.o
mm_process_map_stack                              output.o
mm_process_switch                                 output.o
mm_process_unmap                                  output.o
mm_process_unmap_stack                            output.o
mm_process_unmapall                               output.o
mmio_access_memory                                output.o
mmio_access_page                                  output.o
mmio_lock                                         output.o
mmio_range                                        output.o
mmio_register                                     output.o
mmio_register_unlocked                            output.o
mmio_unlock                                       output.o
mmio_unregister                                   output.o
move_vmm_area32                                   output.o
move_vmm_area64                                   output.o
mpudiv_128_32                                     output.o
mpumul_64_64                                      output.o
msg_findname                                      output.o
msg_register                                      output.o
msg_unregister                                    output.o
msg_unregister2                                   output.o
msg_unregisterall                                 output.o
msg_usb_bulk_read                                 output.o
msg_usb_bulk_write                                output.o
msg_usb_claim_interface                           output.o
msg_usb_close                                     output.o
msg_usb_control_msg                               output.o
msg_usb_find_busses                               output.o
msg_usb_find_devices                              output.o
msg_usb_get_busses                                output.o
msg_usb_get_string_simple                         output.o
msg_usb_init                                      output.o
msg_usb_open                                      output.o
msg_usb_release_interface                         output.o
msg_usb_reset                                     output.o
msg_vpn_FreeTimer                                 output.o
msg_vpn_GetCurrentCpuId                           output.o
msg_vpn_GetPhysicalNicInfo                        output.o
msg_vpn_GetTickCount                              output.o
msg_vpn_GetVirtualNicInfo                         output.o
msg_vpn_NewTimer                                  output.o
msg_vpn_SendPhysicalNic                           output.o
msg_vpn_SendVirtualNic                            output.o
msg_vpn_SetPhysicalNicRecvCallback                output.o
msg_vpn_SetTimer                                  output.o
msg_vpn_SetVirtualNicRecvCallback                 output.o
msg_vpn_ic_rsa_sign                               output.o
msgclose                                          output.o
msgopen                                           output.o
msgpremapbuf                                      output.o
msgregister                                       output.o
msgsendbuf                                        output.o
msgsenddesc                                       output.o
msgsendint                                        output.o
msgsetfunc                                        output.o
msgunregister                                     output.o
msr_pass_hook_x2apic_icr                          output.o
mszReaders                                        output.o
name_cmp                                          output.o
net_init                                          output.o
net_main_get_mac_address                          output.o
net_main_poll                                     output.o
net_main_send                                     output.o
net_main_set_recv_arg                             output.o
net_main_task_add                                 output.o
net_new_nic                                       output.o
net_premap_recvbuf                                output.o
net_register                                      output.o
net_start                                         output.o
netif_add                                         output.o
netif_default                                     output.o
netif_find                                        output.o
netif_init                                        output.o
netif_list                                        output.o
netif_remove                                      output.o
netif_set_addr                                    output.o
netif_set_default                                 output.o
netif_set_down                                    output.o
netif_set_gw                                      output.o
netif_set_ipaddr                                  output.o
netif_set_link_down                               output.o
netif_set_link_up                                 output.o
netif_set_netmask                                 output.o
netif_set_up                                      output.o
newprocess                                        output.o
num_dom                                           output.o
num_of_available_pages                            output.o
num_of_processors                                 output.o
o2i_ECPublicKey                                   output.o
obj_cleanup_defer                                 output.o
own_process64_msrs                                output.o
packet_handle_command                             output.o
packet_handle_config                              output.o
packet_handle_invalid                             output.o
packet_handle_nondata                             output.o
packet_handle_rw                                  output.o
packet_handle_through                             output.o
panic                                             output.o
panic_oom                                         output.o
panic_test                                        output.o
panic_wakeup_all                                  output.o
parse_dmar_bios_report                            output.o
pbuf_alloc                                        output.o
pbuf_alloced_custom                               output.o
pbuf_cat                                          output.o
pbuf_chain                                        output.o
pbuf_clen                                         output.o
pbuf_coalesce                                     output.o
pbuf_copy                                         output.o
pbuf_copy_partial                                 output.o
pbuf_dechain                                      output.o
pbuf_free                                         output.o
pbuf_free_ooseq                                   output.o
pbuf_free_ooseq_pending                           output.o
pbuf_get_at                                       output.o
pbuf_header                                       output.o
pbuf_memcmp                                       output.o
pbuf_memfind                                      output.o
pbuf_realloc                                      output.o
pbuf_ref                                          output.o
pbuf_strstr                                       output.o
pbuf_take                                         output.o
pci_append_device                                 output.o
pci_conceal_config_read                           output.o
pci_conceal_config_write                          output.o
pci_conceal_new                                   output.o
pci_config_addr_handler                           output.o
pci_config_data_handler                           output.o
pci_config_mmio_data_head                         output.o
pci_config_mmio_handler                           output.o
pci_config_pmio_enter                             output.o
pci_config_pmio_leave                             output.o
pci_config_read                                   output.o
pci_config_write                                  output.o
pci_device_list_head                              output.o
pci_driver_list_head                              output.o
pci_driver_option_get_bool                        output.o
pci_driver_option_get_int                         output.o
pci_dump_pci_dev_list                             output.o
pci_find_driver_by_token                          output.o
pci_find_driver_for_device                        output.o
pci_get_bar_info                                  output.o
pci_get_bridge_from_bus_no                        output.o
pci_get_modifying_bar_info                        output.o
pci_handle_default_config_read                    output.o
pci_handle_default_config_write                   output.o
pci_match                                         output.o
pci_match_add_compat                              output.o
pci_match_find_driver                             output.o
pci_monitor_config_read                           output.o
pci_monitor_config_write                          output.o
pci_monitor_new                                   output.o
pci_msi_disable                                   output.o
pci_msi_enable                                    output.o
pci_msi_init                                      output.o
pci_possible_new_device                           output.o
pci_print_device                                  output.o
pci_read_config_mmio                              output.o
pci_read_config_pmio                              output.o
pci_readwrite_config_mmio                         output.o
pci_readwrite_config_pmio                         output.o
pci_reconnect_device                              output.o
pci_register_driver                               output.o
pci_register_intr_callback                        output.o
pci_save_config_addr                              output.o
pci_set_bridge_callback                           output.o
pci_set_bridge_from_bus_no                        output.o
pci_set_bridge_io                                 output.o
pci_system_disconnect                             output.o
pci_write_config_mmio                             output.o
pci_write_config_pmio                             output.o
pcpu_default                                      output.o
pcpu_init                                         output.o
pcpu_list_add                                     output.o
pcpu_list_foreach                                 output.o
pem_check_suffix                                  output.o
phys_in_vmm                                       output.o
phys_to_virt                                      output.o
pmap_autoalloc                                    output.o
pmap_clear                                        output.o
pmap_close                                        output.o
pmap_dump                                         output.o
pmap_getreadlevel                                 output.o
pmap_open_guest                                   output.o
pmap_open_vmm                                     output.o
pmap_pointer                                      output.o
pmap_read                                         output.o
pmap_seek                                         output.o
pmap_setlevel                                     output.o
pmap_write                                        output.o
policy_cache_find_data                            output.o
policy_cache_free                                 output.o
policy_cache_set                                  output.o
policy_cache_set_mapping                          output.o
policy_data_free                                  output.o
policy_data_new                                   output.o
policy_node_cmp_new                               output.o
policy_node_free                                  output.o
policy_node_match                                 output.o
prepare_for_sleep                                 output.o
printexitcode                                     output.o
printexitreason                                   output.o
printf                                            output.o
pro100_alloc_page                                 output.o
pro100_alloc_recv_buffer                          output.o
pro100_beep                                       output.o
pro100_config_read                                output.o
pro100_config_write                               output.o
pro100_exec_cu_op                                 output.o
pro100_flush                                      output.o
pro100_free_page                                  output.o
pro100_generate_int                               output.o
pro100_get_ctx                                    output.o
pro100_get_cu_command_string                      output.o
pro100_get_int_bit_string                         output.o
pro100_get_op_size                                output.o
pro100_get_ru_command_string                      output.o
pro100_get_stat_ack_string                        output.o
pro100_hook_read                                  output.o
pro100_hook_write                                 output.o
pro100_init                                       output.o
pro100_init_cu_base_addr                          output.o
pro100_init_recv_buffer                           output.o
pro100_init_ru_base_addr                          output.o
pro100_init_vpn_client                            output.o
pro100_io_handler                                 output.o
pro100_mem_read                                   output.o
pro100_mem_write                                  output.o
pro100_mm_handler                                 output.o
pro100_new                                        output.o
pro100_poll_ru                                    output.o
pro100_proc_guest_op                              output.o
pro100_read                                       output.o
pro100_read_send_packet                           output.o
pro100_send_packet_to_line                        output.o
pro100_sleep                                      output.o
pro100_wait_cu_ru_accepable                       output.o
pro100_write                                      output.o
pro100_write_recv_packet                          output.o
process_kill                                      output.o
process_syscall                                   output.o
processuser_no_sysenter                           output.o
processuser_syscall                               output.o
processuser_sysenter                              output.o
prohibit_iccard_init                              output.o
ps2_locked                                        output.o
putchar                                           output.o
putchar_set_func                                  output.o
ram_heap                                          output.o
rand_ssleay_meth                                  output.o
raw_bind                                          output.o
raw_connect                                       output.o
raw_input                                         output.o
raw_new                                           output.o
raw_recv                                          output.o
raw_remove                                        output.o
raw_send                                          output.o
raw_sendto                                        output.o
read_gphys_b                                      output.o
read_gphys_l                                      output.o
read_gphys_q                                      output.o
read_gphys_w                                      output.o
read_hphys_b                                      output.o
read_hphys_l                                      output.o
read_hphys_q                                      output.o
read_hphys_w                                      output.o
read_linearaddr_b                                 output.o
read_linearaddr_l                                 output.o
read_linearaddr_q                                 output.o
read_linearaddr_tss                               output.o
read_linearaddr_w                                 output.o
readerState                                       output.o
readerTracker                                     output.o
realloc                                           output.o
reboot_test                                       output.o
reg_hpet_mm_handler                               output.o
reg_ioapic_mm_handler                             output.o
register_status_callback                          output.o
resume_vm                                         output.o
ret_to_user32                                     output.o
ret_to_user64                                     output.o
ripemd160_block_data_order                        output.o
rsa_asn1_meths                                    output.o
rsa_pkey_meth                                     output.o
rt                                                output.o
s2i_ASN1_INTEGER                                  output.o
s2i_ASN1_OCTET_STRING                             output.o
sReaderContext                                    output.o
savemsr_index                                     output.o
savemsr_load                                      output.o
savemsr_save                                      output.o
scan_gframelist                                   output.o
schedule                                          output.o
security_storage_check_lba                        output.o
segment_init_ap                                   output.o
segment_wakeup                                    output.o
serial_getDebugChar                               output.o
serial_init_iohook                                output.o
serial_putDebugChar                               output.o
serial_putchar                                    output.o
sessionTable                                      output.o
set_int_handler                                   output.o
set_iofunc                                        output.o
setkbdled                                         output.o
shadow_and_activate_urb                           output.o
sig_app                                           output.o
sigx_app                                          output.o
sk_delete                                         output.o
sk_delete_ptr                                     output.o
sk_dup                                            output.o
sk_find                                           output.o
sk_find_ex                                        output.o
sk_free                                           output.o
sk_insert                                         output.o
sk_is_sorted                                      output.o
sk_new                                            output.o
sk_new_null                                       output.o
sk_num                                            output.o
sk_pop                                            output.o
sk_pop_free                                       output.o
sk_push                                           output.o
sk_set                                            output.o
sk_set_cmp_func                                   output.o
sk_shift                                          output.o
sk_sort                                           output.o
sk_unshift                                        output.o
sk_value                                          output.o
sk_zero                                           output.o
sleep_set_timer_counter                           output.o
slotFlag                                          output.o
slotTable                                         output.o
snprintf                                          output.o
start_all_processors                              output.o
storage_free                                      output.o
storage_get_num_hc                                output.o
storage_handle_sectors                            output.o
storage_hc_close                                  output.o
storage_hc_dev_atacommand                         output.o
storage_hc_dev_close                              output.o
storage_hc_dev_open                               output.o
storage_hc_hook_register                          output.o
storage_hc_hook_unregister                        output.o
storage_hc_open                                   output.o
storage_hc_register                               output.o
storage_hc_scandev                                output.o
storage_hc_unregister                             output.o
storage_init                                      output.o
storage_io_aget_size                              output.o
storage_io_aread                                  output.o
storage_io_awrite                                 output.o
storage_io_deinit                                 output.o
storage_io_get_num_devices                        output.o
storage_io_init                                   output.o
storage_new                                       output.o
storage_premap_buf                                output.o
storage_premap_handle_sectors                     output.o
strcmp                                            output.o
string_to_hex                                     output.o
strlen                                            output.o
strtol                                            output.o
svm_available                                     output.o
svm_enable_resume                                 output.o
svm_init                                          output.o
svm_init_signal                                   output.o
svm_ioio                                          output.o
svm_iopass                                        output.o
svm_msr_update_lma                                output.o
svm_msrpass                                       output.o
svm_np_clear_all                                  output.o
svm_np_extern_mapsearch                           output.o
svm_np_init                                       output.o
svm_np_map_1mb                                    output.o
svm_np_pagefault                                  output.o
svm_np_tlbflush                                   output.o
svm_np_updatecr3                                  output.o
svm_paging_apply_fixed_cr0                        output.o
svm_paging_apply_fixed_cr4                        output.o
svm_paging_clear_all                              output.o
svm_paging_extern_flush_tlb_entry                 output.o
svm_paging_flush_guest_tlb                        output.o
svm_paging_get_gpat                               output.o
svm_paging_init                                   output.o
svm_paging_invalidate                             output.o
svm_paging_map_1mb                                output.o
svm_paging_npf                                    output.o
svm_paging_pagefault                              output.o
svm_paging_pg_change                              output.o
svm_paging_set_gpat                               output.o
svm_paging_spt_setcr3                             output.o
svm_paging_start                                  output.o
svm_paging_tlbflush                               output.o
svm_paging_updatecr3                              output.o
svm_panic_dump                                    output.o
svm_read_control_reg                              output.o
svm_read_flags                                    output.o
svm_read_gdtr                                     output.o
svm_read_general_reg                              output.o
svm_read_idtr                                     output.o
svm_read_ip                                       output.o
svm_read_msr                                      output.o
svm_read_sreg_acr                                 output.o
svm_read_sreg_base                                output.o
svm_read_sreg_limit                               output.o
svm_read_sreg_sel                                 output.o
svm_reset                                         output.o
svm_resume                                        output.o
svm_start_vm                                      output.o
svm_vmexit                                        output.o
svm_vminit                                        output.o
svm_write_control_reg                             output.o
svm_write_flags                                   output.o
svm_write_gdtr                                    output.o
svm_write_general_reg                             output.o
svm_write_idtr                                    output.o
svm_write_ip                                      output.o
svm_write_msr                                     output.o
svm_write_realmode_seg                            output.o
svm_writing_sreg                                  output.o
sx_handler                                        output.o
sym_to_phys                                       output.o
sync_all_processors                               output.o
sys_check_timeouts                                output.o
sys_exitprocess                                   output.o
sys_msgclose                                      output.o
sys_msgopen                                       output.o
sys_msgregister                                   output.o
sys_msgret                                        output.o
sys_msgsendbuf                                    output.o
sys_msgsenddesc                                   output.o
sys_msgsendint                                    output.o
sys_msgsetfunc                                    output.o
sys_msgunregister                                 output.o
sys_newprocess                                    output.o
sys_now                                           output.o
sys_restart_timeouts                              output.o
sys_timeout                                       output.o
sys_timeouts_init                                 output.o
sys_untimeout                                     output.o
syscall_entry_lret                                output.o
syscall_entry_sysexit                             output.o
syscall_entry_sysret64                            output.o
tcg_measure                                       output.o
tcp_abandon                                       output.o
tcp_abort                                         output.o
tcp_accept                                        output.o
tcp_active_pcbs                                   output.o
tcp_active_pcbs_changed                           output.o
tcp_alloc                                         output.o
tcp_arg                                           output.o
tcp_backoff                                       output.o
tcp_bind                                          output.o
tcp_bound_pcbs                                    output.o
tcp_close                                         output.o
tcp_connect                                       output.o
tcp_debug_state_str                               output.o
tcp_eff_send_mss                                  output.o
tcp_enqueue_flags                                 output.o
tcp_err                                           output.o
tcp_fasttmr                                       output.o
tcp_init                                          output.o
tcp_input                                         output.o
tcp_input_pcb                                     output.o
tcp_keepalive                                     output.o
tcp_listen_pcbs                                   output.o
tcp_listen_with_backlog                           output.o
tcp_new                                           output.o
tcp_next_iss                                      output.o
tcp_output                                        output.o
tcp_pcb_lists                                     output.o
tcp_pcb_purge                                     output.o
tcp_pcb_remove                                    output.o
tcp_persist_backoff                               output.o
tcp_poll                                          output.o
tcp_process_refused_data                          output.o
tcp_recv                                          output.o
tcp_recv_null                                     output.o
tcp_recved                                        output.o
tcp_rexmit                                        output.o
tcp_rexmit_fast                                   output.o
tcp_rexmit_rto                                    output.o
tcp_rst                                           output.o
tcp_seg_copy                                      output.o
tcp_seg_free                                      output.o
tcp_segs_free                                     output.o
tcp_send_empty_ack                                output.o
tcp_send_fin                                      output.o
tcp_sent                                          output.o
tcp_setprio                                       output.o
tcp_shutdown                                      output.o
tcp_slowtmr                                       output.o
tcp_state_str                                     output.o
tcp_ticks                                         output.o
tcp_timer_needed                                  output.o
tcp_tmp_pcb                                       output.o
tcp_tmr                                           output.o
tcp_tw_pcbs                                       output.o
tcp_update_rcv_ann_wnd                            output.o
tcp_write                                         output.o
tcp_zero_window_probe                             output.o
tcpip_begin                                       output.o
thread_exit                                       output.o
thread_gettid                                     output.o
thread_new                                        output.o
thread_start0                                     output.o
thread_start1                                     output.o
thread_switch                                     output.o
thread_wakeup                                     output.o
thread_will_stop                                  output.o
timer_free                                        output.o
timer_new                                         output.o
timer_set                                         output.o
tree_find_sk                                      output.o
tty_get_logbuf_info                               output.o
tty_init_iohook                                   output.o
tty_putchar                                       output.o
tty_udp_register                                  output.o
ttylog_copy_from_panicmem                         output.o
ttylog_copy_to_panicmem                           output.o
ttylog_stop                                       output.o
udp_bind                                          output.o
udp_connect                                       output.o
udp_disconnect                                    output.o
udp_init                                          output.o
udp_input                                         output.o
udp_new                                           output.o
udp_pcbs                                          output.o
udp_recv                                          output.o
udp_remove                                        output.o
udp_send                                          output.o
udp_sendto                                        output.o
udp_sendto_if                                     output.o
uefi_acpi_20_table                                output.o
uefi_acpi_table                                   output.o
uefi_allocate_pages                               output.o
uefi_boot_param_ext_addr                          output.o
uefi_booted                                       output.o
uefi_close_protocol                               output.o
uefi_conin                                        output.o
uefi_conin_read_key_stroke                        output.o
uefi_conout                                       output.o
uefi_conout_output_string                         output.o
uefi_disconnect_controller                        output.o
uefi_entry_call                                   output.o
uefi_entry_pcpy                                   output.o
uefi_entry_ret_addr                               output.o
uefi_entry_rsp                                    output.o
uefi_entry_start                                  output.o
uefi_entry_virttophys                             output.o
uefi_free_pages                                   output.o
uefi_free_pool                                    output.o
uefi_get_memory_map                               output.o
uefi_image_handle                                 output.o
uefi_init                                         output.o
uefi_init_get_vmmsize                             output.o
uefi_locate_handle_buffer                         output.o
uefi_memory_map_data                              output.o
uefi_memory_map_descsize                          output.o
uefi_memory_map_size                              output.o
uefi_mmio_space                                   output.o
uefi_open_protocol                                output.o
uefi_param_ext_get_phys                           output.o
uefi_wait_for_event                               output.o
uhci_activate_urb                                 output.o
uhci_check_advance                                output.o
uhci_check_urb_advance                            output.o
uhci_create_urb                                   output.o
uhci_current_frame_number                         output.o
uhci_deactivate_urb                               output.o
uhci_destroy_unlinked_urbs                        output.o
uhci_destroy_urb                                  output.o
uhci_dump_all                                     output.o
uhci_error_status_string                          output.o
uhci_framelist_monitor                            output.o
uhci_init                                         output.o
uhci_monitor_boost_hc                             output.o
uhci_reactivate_urb                               output.o
uhci_shadow_buffer                                output.o
uhci_submit_bulk                                  output.o
uhci_submit_control                               output.o
uhci_submit_interrupt                             output.o
unmapmem                                          output.o
update_mtrr_and_pat                               output.o
usb_bulk_read                                     output.o
usb_bulk_write                                    output.o
usb_busses_head                                   output.o
usb_claim_interface                               output.o
usb_clear_halt                                    output.o
usb_close                                         output.o
usb_control_msg                                   output.o
usb_find_busses                                   output.o
usb_find_devices                                  output.o
usb_get_bus                                       output.o
usb_get_busses                                    output.o
usb_get_descriptor                                output.o
usb_get_descriptor_by_endpoint                    output.o
usb_get_descriptor_early                          output.o
usb_get_string                                    output.o
usb_get_string_simple                             output.o
usb_hc_list_head                                  output.o
usb_hook_process                                  output.o
usb_hook_register                                 output.o
usb_hook_register_ex                              output.o
usb_hook_unregister                               output.o
usb_init                                          output.o
usb_init_device                                   output.o
usb_init_device_monitor                           output.o
usb_interrupt_read                                output.o
usb_interrupt_write                               output.o
usb_log_level                                     output.o
usb_new_dev_handle                                output.o
usb_open                                          output.o
usb_register_host                                 output.o
usb_release_interface                             output.o
usb_reset                                         output.o
usb_resetep                                       output.o
usb_sc_lock                                       output.o
usb_sc_unlock                                     output.o
usb_set_altinterface                              output.o
usb_set_configuration                             output.o
usb_set_debug                                     output.o
usb_unregister_devices                            output.o
usbccid_init_handle                               output.o
usbhid_init_handle                                output.o
usbhub_init_handle                                output.o
usbmsc_init_handle                                output.o
use_pae                                           output.o
usleep                                            output.o
v2i_ASN1_BIT_STRING                               output.o
v2i_GENERAL_NAME                                  output.o
v2i_GENERAL_NAMES                                 output.o
v2i_GENERAL_NAME_ex                               output.o
v3_akey_id                                        output.o
v3_alt                                            output.o
v3_bcons                                          output.o
v3_cpols                                          output.o
v3_crl_hold                                       output.o
v3_crl_invdate                                    output.o
v3_crl_num                                        output.o
v3_crl_reason                                     output.o
v3_crld                                           output.o
v3_delta_crl                                      output.o
v3_ext_ku                                         output.o
v3_freshest_crl                                   output.o
v3_idp                                            output.o
v3_info                                           output.o
v3_inhibit_anyp                                   output.o
v3_key_usage                                      output.o
v3_name_constraints                               output.o
v3_ns_ia5_list                                    output.o
v3_nscert                                         output.o
v3_ocsp_accresp                                   output.o
v3_ocsp_acutoff                                   output.o
v3_ocsp_crlid                                     output.o
v3_ocsp_nocheck                                   output.o
v3_ocsp_nonce                                     output.o
v3_ocsp_serviceloc                                output.o
v3_pci                                            output.o
v3_pkey_usage_period                              output.o
v3_policy_constraints                             output.o
v3_policy_mappings                                output.o
v3_sinfo                                          output.o
v3_skey_id                                        output.o
v3_sxnet                                          output.o
vcpu_list_foreach                                 output.o
vga_fill_rect                                     output.o
vga_get_screen_size                               output.o
vga_is_ready                                      output.o
vga_register                                      output.o
vga_transfer_image                                output.o
virtio_intr                                       output.o
virtio_net_config_read                            output.o
virtio_net_config_write                           output.o
virtio_net_init                                   output.o
virtio_net_msix                                   output.o
virtio_net_set_msix                               output.o
virtio_net_set_multifunction                      output.o
vmctl_svm_init                                    output.o
vmctl_vt_init                                     output.o
vmm_base_cr3                                      output.o
vmm_main                                          output.o
vmm_start_inf                                     output.o
vmm_start_phys                                    output.o
vmm_term_inf                                      output.o
vmmcall                                           output.o
vmmcall_boot_continue                             output.o
vmmcall_boot_enable                               output.o
vmmcall_init                                      output.o
vmmcall_register                                  output.o
vmmsize                                           output.o
vpn_FreeTimer                                     output.o
vpn_GetCurrentCpuId                               output.o
vpn_GetPhysicalNicInfo                            output.o
vpn_GetTickCount                                  output.o
vpn_GetVirtualNicInfo                             output.o
vpn_NewTimer                                      output.o
vpn_SendPhysicalNic                               output.o
vpn_SendVirtualNic                                output.o
vpn_SetPhysicalNicRecvCallback                    output.o
vpn_SetTimer                                      output.o
vpn_SetVirtualNicRecvCallback                     output.o
vpn_ic_rsa_sign                                   output.o
vpn_start                                         output.o
vpn_user_init                                     output.o
vprintf                                           output.o
vramwrite_clearscreen                             output.o
vramwrite_exit_global                             output.o
vramwrite_get_cursor_pos                          output.o
vramwrite_init_global                             output.o
vramwrite_mark1                                   output.o
vramwrite_mark2                                   output.o
vramwrite_mark3                                   output.o
vramwrite_putchar                                 output.o
vramwrite_restore_cursor                          output.o
vramwrite_save_and_move_cursor                    output.o
vsnprintf                                         output.o
vt__vmx_init                                      output.o
vt__vmxon                                         output.o
vt_add_guest_msr                                  output.o
vt_available                                      output.o
vt_enable_resume                                  output.o
vt_ept_clear_all                                  output.o
vt_ept_extern_mapsearch                           output.o
vt_ept_init                                       output.o
vt_ept_map_1mb                                    output.o
vt_ept_tlbflush                                   output.o
vt_ept_updatecr3                                  output.o
vt_ept_violation                                  output.o
vt_generate_external_int                          output.o
vt_generate_pagefault                             output.o
vt_get_current_regs_in_vmcs                       output.o
vt_get_vmcs_regs_in_vmcs                          output.o
vt_init                                           output.o
vt_init_signal                                    output.o
vt_io                                             output.o
vt_iopass                                         output.o
vt_msr_init                                       output.o
vt_msr_load_process64_msrs                        output.o
vt_msr_own_process_msrs                           output.o
vt_msr_update_lma                                 output.o
vt_msrpass                                        output.o
vt_paging_apply_fixed_cr0                         output.o
vt_paging_apply_fixed_cr4                         output.o
vt_paging_clear_all                               output.o
vt_paging_extern_flush_tlb_entry                  output.o
vt_paging_flush_guest_tlb                         output.o
vt_paging_get_gpat                                output.o
vt_paging_init                                    output.o
vt_paging_invalidate                              output.o
vt_paging_map_1mb                                 output.o
vt_paging_npf                                     output.o
vt_paging_pagefault                               output.o
vt_paging_pg_change                               output.o
vt_paging_set_gpat                                output.o
vt_paging_spt_setcr3                              output.o
vt_paging_start                                   output.o
vt_paging_tlbflush                                output.o
vt_paging_updatecr3                               output.o
vt_panic_dump                                     output.o
vt_read_control_reg                               output.o
vt_read_flags                                     output.o
vt_read_gdtr                                      output.o
vt_read_general_reg                               output.o
vt_read_guest_msr                                 output.o
vt_read_idtr                                      output.o
vt_read_ip                                        output.o
vt_read_msr                                       output.o
vt_read_sreg_acr                                  output.o
vt_read_sreg_base                                 output.o
vt_read_sreg_limit                                output.o
vt_read_sreg_sel                                  output.o
vt_reset                                          output.o
vt_resume                                         output.o
vt_start_vm                                       output.o
vt_update_exception_bmp                           output.o
vt_update_exint                                   output.o
vt_vmexit                                         output.o
vt_vminit                                         output.o
vt_vmptrld                                        output.o
vt_write_control_reg                              output.o
vt_write_flags                                    output.o
vt_write_gdtr                                     output.o
vt_write_general_reg                              output.o
vt_write_guest_msr                                output.o
vt_write_idtr                                     output.o
vt_write_ip                                       output.o
vt_write_msr                                      output.o
vt_write_realmode_seg                             output.o
vt_writing_sreg                                   output.o
waitcycles                                        output.o
wakeup_cont                                       output.o
wakeup_entry_addr                                 output.o
wakeup_entry_cr0                                  output.o
wakeup_entry_cr3                                  output.o
wakeup_entry_cr4                                  output.o
wakeup_entry_end                                  output.o
wakeup_entry_gdtr                                 output.o
wakeup_entry_start                                output.o
wakeup_init                                       output.o
wakeup_main                                       output.o
whirlpool_block                                   output.o
write_gphys_b                                     output.o
write_gphys_l                                     output.o
write_gphys_q                                     output.o
write_gphys_w                                     output.o
write_hphys_b                                     output.o
write_hphys_l                                     output.o
write_hphys_q                                     output.o
write_hphys_w                                     output.o
write_linearaddr_b                                output.o
write_linearaddr_l                                output.o
write_linearaddr_ok_b                             output.o
write_linearaddr_ok_l                             output.o
write_linearaddr_ok_w                             output.o
write_linearaddr_q                                output.o
write_linearaddr_tss                              output.o
write_linearaddr_w                                output.o
x509_name_ff                                      output.o
xhci_append_h_urb_to_ep                           output.o
xhci_check_urb_advance                            output.o
xhci_construct_gurbs                              output.o
xhci_create_shadow_erst                           output.o
xhci_deactivate_urb                               output.o
xhci_ep0_copyback                                 output.o
xhci_ep0_shadowing                                output.o
xhci_hand_eps_back_to_guest                       output.o
xhci_hc_reset                                     output.o
xhci_init                                         output.o
xhci_process_cmd_trb                              output.o
xhci_set_no_data_trb_hook                         output.o
xhci_shadow_g_urb                                 output.o
xhci_shadow_trbs                                  output.o
xhci_submit_bulk                                  output.o
xhci_submit_control                               output.o
xhci_submit_interrupt                             output.o
xhci_sync_state                                   output.o
xhci_unmap_guest_erst                             output.o
xhci_update_er_and_dev_ctx                        output.o
